
ATM_ECU.elf:     file format elf32-avr

Sections:
Idx Name          Size      VMA       LMA       File off  Algn
  0 .text         0000148a  00000000  00000000  00000094  2**1
                  CONTENTS, ALLOC, LOAD, READONLY, CODE
  1 .data         0000014e  00800060  0000148a  0000151e  2**0
                  CONTENTS, ALLOC, LOAD, DATA
  2 .bss          0000000b  008001ae  008001ae  0000166c  2**0
                  ALLOC
  3 .comment      00000030  00000000  00000000  0000166c  2**0
                  CONTENTS, READONLY
  4 .note.gnu.avr.deviceinfo 0000003c  00000000  00000000  0000169c  2**2
                  CONTENTS, READONLY
  5 .debug_aranges 00000210  00000000  00000000  000016d8  2**0
                  CONTENTS, READONLY, DEBUGGING
  6 .debug_info   00002a7c  00000000  00000000  000018e8  2**0
                  CONTENTS, READONLY, DEBUGGING
  7 .debug_abbrev 00000ccd  00000000  00000000  00004364  2**0
                  CONTENTS, READONLY, DEBUGGING
  8 .debug_line   000016fb  00000000  00000000  00005031  2**0
                  CONTENTS, READONLY, DEBUGGING
  9 .debug_frame  00000418  00000000  00000000  0000672c  2**2
                  CONTENTS, READONLY, DEBUGGING
 10 .debug_str    00000b59  00000000  00000000  00006b44  2**0
                  CONTENTS, READONLY, DEBUGGING
 11 .debug_loc    00000f7c  00000000  00000000  0000769d  2**0
                  CONTENTS, READONLY, DEBUGGING
 12 .debug_ranges 00000180  00000000  00000000  00008619  2**0
                  CONTENTS, READONLY, DEBUGGING

Disassembly of section .text:

00000000 <__vectors>:
       0:	0c 94 2a 00 	jmp	0x54	; 0x54 <__ctors_end>
       4:	0c 94 47 00 	jmp	0x8e	; 0x8e <__bad_interrupt>
       8:	0c 94 47 00 	jmp	0x8e	; 0x8e <__bad_interrupt>
       c:	0c 94 47 00 	jmp	0x8e	; 0x8e <__bad_interrupt>
      10:	0c 94 47 00 	jmp	0x8e	; 0x8e <__bad_interrupt>
      14:	0c 94 47 00 	jmp	0x8e	; 0x8e <__bad_interrupt>
      18:	0c 94 47 00 	jmp	0x8e	; 0x8e <__bad_interrupt>
      1c:	0c 94 47 00 	jmp	0x8e	; 0x8e <__bad_interrupt>
      20:	0c 94 47 00 	jmp	0x8e	; 0x8e <__bad_interrupt>
      24:	0c 94 47 00 	jmp	0x8e	; 0x8e <__bad_interrupt>
      28:	0c 94 47 00 	jmp	0x8e	; 0x8e <__bad_interrupt>
      2c:	0c 94 47 00 	jmp	0x8e	; 0x8e <__bad_interrupt>
      30:	0c 94 47 00 	jmp	0x8e	; 0x8e <__bad_interrupt>
      34:	0c 94 47 00 	jmp	0x8e	; 0x8e <__bad_interrupt>
      38:	0c 94 47 00 	jmp	0x8e	; 0x8e <__bad_interrupt>
      3c:	0c 94 47 00 	jmp	0x8e	; 0x8e <__bad_interrupt>
      40:	0c 94 47 00 	jmp	0x8e	; 0x8e <__bad_interrupt>
      44:	0c 94 47 00 	jmp	0x8e	; 0x8e <__bad_interrupt>
      48:	0c 94 47 00 	jmp	0x8e	; 0x8e <__bad_interrupt>
      4c:	0c 94 47 00 	jmp	0x8e	; 0x8e <__bad_interrupt>
      50:	0c 94 47 00 	jmp	0x8e	; 0x8e <__bad_interrupt>

00000054 <__ctors_end>:
      54:	11 24       	eor	r1, r1
      56:	1f be       	out	0x3f, r1	; 63
      58:	cf e5       	ldi	r28, 0x5F	; 95
      5a:	d8 e0       	ldi	r29, 0x08	; 8
      5c:	de bf       	out	0x3e, r29	; 62
      5e:	cd bf       	out	0x3d, r28	; 61

00000060 <__do_copy_data>:
      60:	11 e0       	ldi	r17, 0x01	; 1
      62:	a0 e6       	ldi	r26, 0x60	; 96
      64:	b0 e0       	ldi	r27, 0x00	; 0
      66:	ea e8       	ldi	r30, 0x8A	; 138
      68:	f4 e1       	ldi	r31, 0x14	; 20
      6a:	02 c0       	rjmp	.+4      	; 0x70 <__do_copy_data+0x10>
      6c:	05 90       	lpm	r0, Z+
      6e:	0d 92       	st	X+, r0
      70:	ae 3a       	cpi	r26, 0xAE	; 174
      72:	b1 07       	cpc	r27, r17
      74:	d9 f7       	brne	.-10     	; 0x6c <__do_copy_data+0xc>

00000076 <__do_clear_bss>:
      76:	21 e0       	ldi	r18, 0x01	; 1
      78:	ae ea       	ldi	r26, 0xAE	; 174
      7a:	b1 e0       	ldi	r27, 0x01	; 1
      7c:	01 c0       	rjmp	.+2      	; 0x80 <.do_clear_bss_start>

0000007e <.do_clear_bss_loop>:
      7e:	1d 92       	st	X+, r1

00000080 <.do_clear_bss_start>:
      80:	a9 3b       	cpi	r26, 0xB9	; 185
      82:	b2 07       	cpc	r27, r18
      84:	e1 f7       	brne	.-8      	; 0x7e <.do_clear_bss_loop>
      86:	0e 94 fc 05 	call	0xbf8	; 0xbf8 <main>
      8a:	0c 94 43 0a 	jmp	0x1486	; 0x1486 <_exit>

0000008e <__bad_interrupt>:
      8e:	0c 94 00 00 	jmp	0	; 0x0 <__vectors>

00000092 <APP_init>:
uint16_t u16_g_amount = 0 ; /** AMOUNT NEEDED BY USER **/

/** INITIALIZATION FUNCTION **/
void APP_init()
{
	Button_init(BUTTON2_PORT , BUTTON2_PIN); /** START TRIGGER FROM CARD ECU **/
      92:	60 e0       	ldi	r22, 0x00	; 0
      94:	80 e0       	ldi	r24, 0x00	; 0
      96:	0e 94 1b 03 	call	0x636	; 0x636 <Button_init>
	
	BUZZ_init(); /** ALARM INITIALIZATION **/
      9a:	0e 94 3e 03 	call	0x67c	; 0x67c <BUZZ_init>
	BUZZ_off();  /** ALARM IS OFF **/
      9e:	0e 94 4a 03 	call	0x694	; 0x694 <BUZZ_off>
	
	DIO_setpindir(DIO_PORTB , DIO_PIN0 , DIO_PIN_OUTPUT); /** TRIGGER PIN TO START COMMUNICATION **/
      a2:	41 e0       	ldi	r20, 0x01	; 1
      a4:	60 e0       	ldi	r22, 0x00	; 0
      a6:	81 e0       	ldi	r24, 0x01	; 1
      a8:	0e 94 09 06 	call	0xc12	; 0xc12 <DIO_setpindir>
	DIO_setpinvalue(DIO_PORTB , DIO_PIN0 , DIO_PIN_LOW);  /** INITIAL VALUE IS ZERO **/
      ac:	40 e0       	ldi	r20, 0x00	; 0
      ae:	60 e0       	ldi	r22, 0x00	; 0
      b0:	81 e0       	ldi	r24, 0x01	; 1
      b2:	0e 94 88 06 	call	0xd10	; 0xd10 <DIO_setpinvalue>
	
	TMR0_init(); /** TIMER 0 INITIALIZATION **/
      b6:	0e 94 bb 07 	call	0xf76	; 0xf76 <TMR0_init>
	
	SPI_initslave(); /** INITIALIZE SPI MASTER **/
      ba:	0e 94 7f 07 	call	0xefe	; 0xefe <SPI_initslave>
	
	KEYPAD_init(); /** INITIALIZE THE KEYPAD **/
      be:	0e 94 50 03 	call	0x6a0	; 0x6a0 <KEYPAD_init>
	
	LCD_init();  /** INITIALIZE LCD **/
      c2:	0e 94 a3 04 	call	0x946	; 0x946 <LCD_init>
	TMR0_delayms(20); /** SET DELAY FOR LCD INITILIZATION **/
      c6:	64 e1       	ldi	r22, 0x14	; 20
      c8:	70 e0       	ldi	r23, 0x00	; 0
      ca:	80 e0       	ldi	r24, 0x00	; 0
      cc:	90 e0       	ldi	r25, 0x00	; 0
      ce:	0e 94 e2 07 	call	0xfc4	; 0xfc4 <TMR0_delayms>
	
	LCD_writecustomchar(u8_g_bell , bell); /** STORE THE BELL SHAPE IN CGRAM OF LCD **/
      d2:	60 e0       	ldi	r22, 0x00	; 0
      d4:	82 e6       	ldi	r24, 0x62	; 98
      d6:	90 e0       	ldi	r25, 0x00	; 0
      d8:	0e 94 56 05 	call	0xaac	; 0xaac <LCD_writecustomchar>
	
	LCD_writestr(" WELCOME TO ATM !"); /** DISPLAY WELCOME MESSAGE FOR 1 SEC **/
      dc:	83 ed       	ldi	r24, 0xD3	; 211
      de:	90 e0       	ldi	r25, 0x00	; 0
      e0:	0e 94 2b 05 	call	0xa56	; 0xa56 <LCD_writestr>
	TMR0_delayms(500);
      e4:	64 ef       	ldi	r22, 0xF4	; 244
      e6:	71 e0       	ldi	r23, 0x01	; 1
      e8:	80 e0       	ldi	r24, 0x00	; 0
      ea:	90 e0       	ldi	r25, 0x00	; 0
      ec:	0e 94 e2 07 	call	0xfc4	; 0xfc4 <TMR0_delayms>
	
	LCD_sendcmd(LCD_CLEAR);
      f0:	81 e0       	ldi	r24, 0x01	; 1
      f2:	0e 94 5a 04 	call	0x8b4	; 0x8b4 <LCD_sendcmd>
	TMR0_delayms(20);
      f6:	64 e1       	ldi	r22, 0x14	; 20
      f8:	70 e0       	ldi	r23, 0x00	; 0
      fa:	80 e0       	ldi	r24, 0x00	; 0
      fc:	90 e0       	ldi	r25, 0x00	; 0
      fe:	0e 94 e2 07 	call	0xfc4	; 0xfc4 <TMR0_delayms>
	
	LCD_goto(0 ,1);
     102:	61 e0       	ldi	r22, 0x01	; 1
     104:	80 e0       	ldi	r24, 0x00	; 0
     106:	0e 94 3e 05 	call	0xa7c	; 0xa7c <LCD_goto>
	LCD_writestr("Insert A Card"); /** ASK USER TO INSERT HIS CARD **/
     10a:	85 ee       	ldi	r24, 0xE5	; 229
     10c:	90 e0       	ldi	r25, 0x00	; 0
     10e:	0e 94 2b 05 	call	0xa56	; 0xa56 <LCD_writestr>
	
	do  /** WAIT FOR THE CARD ECU TRIGGER **/
	{
		Is_pressed(BUTTON2_PORT , BUTTON2_PIN , &triggerstatus);
     112:	40 eb       	ldi	r20, 0xB0	; 176
     114:	51 e0       	ldi	r21, 0x01	; 1
     116:	60 e0       	ldi	r22, 0x00	; 0
     118:	80 e0       	ldi	r24, 0x00	; 0
     11a:	0e 94 1f 03 	call	0x63e	; 0x63e <Is_pressed>
	} while (triggerstatus == 0);
     11e:	80 91 b0 01 	lds	r24, 0x01B0	; 0x8001b0 <triggerstatus>
     122:	88 23       	and	r24, r24
     124:	b1 f3       	breq	.-20     	; 0x112 <APP_init+0x80>
	
	/** WAIT UNTILL TRIGGER ACTION FROM THE CARD ECU **/
	LCD_sendcmd(LCD_CLEAR); /** CLEAR THE LCD **/
     126:	81 e0       	ldi	r24, 0x01	; 1
     128:	0e 94 5a 04 	call	0x8b4	; 0x8b4 <LCD_sendcmd>
	TMR0_delayms(20);
     12c:	64 e1       	ldi	r22, 0x14	; 20
     12e:	70 e0       	ldi	r23, 0x00	; 0
     130:	80 e0       	ldi	r24, 0x00	; 0
     132:	90 e0       	ldi	r25, 0x00	; 0
     134:	0e 94 e2 07 	call	0xfc4	; 0xfc4 <TMR0_delayms>
     138:	08 95       	ret

0000013a <APP_readuserpin>:
}

/** FUNCTION TO READ USER PIN **/
void APP_readuserpin()
{
	LCD_sendcmd(LCD_CLEAR); /** CLEAR THE LCD **/
     13a:	81 e0       	ldi	r24, 0x01	; 1
     13c:	0e 94 5a 04 	call	0x8b4	; 0x8b4 <LCD_sendcmd>
	TMR0_delayms(20);
     140:	64 e1       	ldi	r22, 0x14	; 20
     142:	70 e0       	ldi	r23, 0x00	; 0
     144:	80 e0       	ldi	r24, 0x00	; 0
     146:	90 e0       	ldi	r25, 0x00	; 0
     148:	0e 94 e2 07 	call	0xfc4	; 0xfc4 <TMR0_delayms>
	
	LCD_goto(0 , 0);
     14c:	60 e0       	ldi	r22, 0x00	; 0
     14e:	80 e0       	ldi	r24, 0x00	; 0
     150:	0e 94 3e 05 	call	0xa7c	; 0xa7c <LCD_goto>
	LCD_writestr("Enter Your PIN"); /** SAK USER TO INSERT CARD PIN **/
     154:	83 ef       	ldi	r24, 0xF3	; 243
     156:	90 e0       	ldi	r25, 0x00	; 0
     158:	0e 94 2b 05 	call	0xa56	; 0xa56 <LCD_writestr>
	
	for(counter = 0 ; counter < 4 ; counter++)
     15c:	10 92 b8 01 	sts	0x01B8, r1	; 0x8001b8 <counter>
     160:	25 c0       	rjmp	.+74     	; 0x1ac <APP_readuserpin+0x72>
	{
		while ((KEYPAD_read(&u8_a_pressednum) == KEYPAD_readFail)); /** POLLING UNTILL NUMBER PRESSED **/
     162:	83 eb       	ldi	r24, 0xB3	; 179
     164:	91 e0       	ldi	r25, 0x01	; 1
     166:	0e 94 98 03 	call	0x730	; 0x730 <KEYPAD_read>
     16a:	81 30       	cpi	r24, 0x01	; 1
     16c:	d1 f3       	breq	.-12     	; 0x162 <APP_readuserpin+0x28>
		
		LCD_goto(1 , counter+4); /** DISPLAY * WITH EACH PRESSED NUMBER **/
     16e:	60 91 b8 01 	lds	r22, 0x01B8	; 0x8001b8 <counter>
     172:	6c 5f       	subi	r22, 0xFC	; 252
     174:	81 e0       	ldi	r24, 0x01	; 1
     176:	0e 94 3e 05 	call	0xa7c	; 0xa7c <LCD_goto>
		LCD_writechar('*');
     17a:	8a e2       	ldi	r24, 0x2A	; 42
     17c:	0e 94 e4 04 	call	0x9c8	; 0x9c8 <LCD_writechar>
		
		u8_g_userpin[counter] = u8_a_pressednum ; /** STORE THE PRESSED NUMBER **/
     180:	e0 91 b8 01 	lds	r30, 0x01B8	; 0x8001b8 <counter>
     184:	f0 e0       	ldi	r31, 0x00	; 0
     186:	e6 59       	subi	r30, 0x96	; 150
     188:	ff 4f       	sbci	r31, 0xFF	; 255
     18a:	80 91 b3 01 	lds	r24, 0x01B3	; 0x8001b3 <u8_a_pressednum>
     18e:	80 83       	st	Z, r24
		TMR0_delayms(200);
     190:	68 ec       	ldi	r22, 0xC8	; 200
     192:	70 e0       	ldi	r23, 0x00	; 0
     194:	80 e0       	ldi	r24, 0x00	; 0
     196:	90 e0       	ldi	r25, 0x00	; 0
     198:	0e 94 e2 07 	call	0xfc4	; 0xfc4 <TMR0_delayms>
		
		u8_returnstatus = KEYPAD_readFail; /** REINITIALIZE STATE TO ACCEPT NEW NUMBER **/
     19c:	81 e0       	ldi	r24, 0x01	; 1
     19e:	80 93 61 00 	sts	0x0061, r24	; 0x800061 <u8_returnstatus>
	TMR0_delayms(20);
	
	LCD_goto(0 , 0);
	LCD_writestr("Enter Your PIN"); /** SAK USER TO INSERT CARD PIN **/
	
	for(counter = 0 ; counter < 4 ; counter++)
     1a2:	80 91 b8 01 	lds	r24, 0x01B8	; 0x8001b8 <counter>
     1a6:	8f 5f       	subi	r24, 0xFF	; 255
     1a8:	80 93 b8 01 	sts	0x01B8, r24	; 0x8001b8 <counter>
     1ac:	80 91 b8 01 	lds	r24, 0x01B8	; 0x8001b8 <counter>
     1b0:	84 30       	cpi	r24, 0x04	; 4
     1b2:	b8 f2       	brcs	.-82     	; 0x162 <APP_readuserpin+0x28>
		u8_returnstatus = KEYPAD_readFail; /** REINITIALIZE STATE TO ACCEPT NEW NUMBER **/
	}
	
	do /** LONG PRESS FOR 2 SECONDS ON ZERO **/
	{
		KEYPAD_read(&status); /** READ THE ZERO FROM KEYPAD **/
     1b4:	82 eb       	ldi	r24, 0xB2	; 178
     1b6:	91 e0       	ldi	r25, 0x01	; 1
     1b8:	0e 94 98 03 	call	0x730	; 0x730 <KEYPAD_read>
		TMR0_delayms(1000);   /** DELAY FOR 2000 SECONDS    **/
     1bc:	68 ee       	ldi	r22, 0xE8	; 232
     1be:	73 e0       	ldi	r23, 0x03	; 3
     1c0:	80 e0       	ldi	r24, 0x00	; 0
     1c2:	90 e0       	ldi	r25, 0x00	; 0
     1c4:	0e 94 e2 07 	call	0xfc4	; 0xfc4 <TMR0_delayms>
		KEYPAD_read(&status); /** READ THE ZERO FROM KEYPAD **/
     1c8:	82 eb       	ldi	r24, 0xB2	; 178
     1ca:	91 e0       	ldi	r25, 0x01	; 1
     1cc:	0e 94 98 03 	call	0x730	; 0x730 <KEYPAD_read>
		
	} while (status != '0');
     1d0:	80 91 b2 01 	lds	r24, 0x01B2	; 0x8001b2 <status>
     1d4:	80 33       	cpi	r24, 0x30	; 48
     1d6:	71 f7       	brne	.-36     	; 0x1b4 <APP_readuserpin+0x7a>
	
}
     1d8:	08 95       	ret

000001da <APP_startcardcomm>:

/** FUNCTION TO COMMUNICATE WITH CARD ECU TO GET PIN/PAN **/
void APP_startcardcomm()
{
	/** INITIATE COMMUNICATION BETWEEN THE CARD ECU VIA TRIGGER ACTION **/
	DIO_setpinvalue(DIO_PORTB , DIO_PIN0 , DIO_PIN_HIGH);
     1da:	41 e0       	ldi	r20, 0x01	; 1
     1dc:	60 e0       	ldi	r22, 0x00	; 0
     1de:	81 e0       	ldi	r24, 0x01	; 1
     1e0:	0e 94 88 06 	call	0xd10	; 0xd10 <DIO_setpinvalue>
	
	TMR0_delayms(30);
     1e4:	6e e1       	ldi	r22, 0x1E	; 30
     1e6:	70 e0       	ldi	r23, 0x00	; 0
     1e8:	80 e0       	ldi	r24, 0x00	; 0
     1ea:	90 e0       	ldi	r25, 0x00	; 0
     1ec:	0e 94 e2 07 	call	0xfc4	; 0xfc4 <TMR0_delayms>
	
	SPI_receivestring(&u8_g_cardpin); /** RECEIVE THE PIN **/
     1f0:	83 e8       	ldi	r24, 0x83	; 131
     1f2:	90 e0       	ldi	r25, 0x00	; 0
     1f4:	0e 94 a6 07 	call	0xf4c	; 0xf4c <SPI_receivestring>
	TMR0_delayms(30);
     1f8:	6e e1       	ldi	r22, 0x1E	; 30
     1fa:	70 e0       	ldi	r23, 0x00	; 0
     1fc:	80 e0       	ldi	r24, 0x00	; 0
     1fe:	90 e0       	ldi	r25, 0x00	; 0
     200:	0e 94 e2 07 	call	0xfc4	; 0xfc4 <TMR0_delayms>

	SPI_receivestring(&u8_g_cardpan); /** RECEIVE THE PAN **/
     204:	8f e6       	ldi	r24, 0x6F	; 111
     206:	90 e0       	ldi	r25, 0x00	; 0
     208:	0e 94 a6 07 	call	0xf4c	; 0xf4c <SPI_receivestring>
	
	TMR0_delayms(200);
     20c:	68 ec       	ldi	r22, 0xC8	; 200
     20e:	70 e0       	ldi	r23, 0x00	; 0
     210:	80 e0       	ldi	r24, 0x00	; 0
     212:	90 e0       	ldi	r25, 0x00	; 0
     214:	0e 94 e2 07 	call	0xfc4	; 0xfc4 <TMR0_delayms>
	
	LCD_sendcmd(LCD_CLEAR);
     218:	81 e0       	ldi	r24, 0x01	; 1
     21a:	0e 94 5a 04 	call	0x8b4	; 0x8b4 <LCD_sendcmd>
	TMR0_delayms(20);
     21e:	64 e1       	ldi	r22, 0x14	; 20
     220:	70 e0       	ldi	r23, 0x00	; 0
     222:	80 e0       	ldi	r24, 0x00	; 0
     224:	90 e0       	ldi	r25, 0x00	; 0
     226:	0e 94 e2 07 	call	0xfc4	; 0xfc4 <TMR0_delayms>
	LCD_writestr(u8_g_cardpin);
     22a:	83 e8       	ldi	r24, 0x83	; 131
     22c:	90 e0       	ldi	r25, 0x00	; 0
     22e:	0e 94 2b 05 	call	0xa56	; 0xa56 <LCD_writestr>
	TMR0_delayms(500);
     232:	64 ef       	ldi	r22, 0xF4	; 244
     234:	71 e0       	ldi	r23, 0x01	; 1
     236:	80 e0       	ldi	r24, 0x00	; 0
     238:	90 e0       	ldi	r25, 0x00	; 0
     23a:	0e 94 e2 07 	call	0xfc4	; 0xfc4 <TMR0_delayms>
	
	/** VERIFY THE USER INSERTED PIN **/
	u8_a_pinnotmatched = 1 ;
     23e:	81 e0       	ldi	r24, 0x01	; 1
     240:	80 93 60 00 	sts	0x0060, r24	; 0x800060 <__DATA_REGION_ORIGIN__>
	while (u8_a_pintry <= 1 && u8_a_pinnotmatched != 0  ) /** CHECK PIN MATCHING FOR TWO TIMES **/
     244:	45 c0       	rjmp	.+138    	; 0x2d0 <APP_startcardcomm+0xf6>
	{
		u8_a_pinnotmatched = strcmp(u8_g_cardpin , u8_g_userpin); /** COMPARE THE TWO PINs **/
     246:	6a e6       	ldi	r22, 0x6A	; 106
     248:	70 e0       	ldi	r23, 0x00	; 0
     24a:	83 e8       	ldi	r24, 0x83	; 131
     24c:	90 e0       	ldi	r25, 0x00	; 0
     24e:	0e 94 3a 0a 	call	0x1474	; 0x1474 <strcmp>
     252:	80 93 60 00 	sts	0x0060, r24	; 0x800060 <__DATA_REGION_ORIGIN__>
		
		if (u8_a_pinnotmatched == 0) /** PIN MATCHED **/
     256:	88 23       	and	r24, r24
     258:	09 f4       	brne	.+2      	; 0x25c <APP_startcardcomm+0x82>
     25a:	42 c0       	rjmp	.+132    	; 0x2e0 <APP_startcardcomm+0x106>
			break ;
		}
		
		else /** PIN NOT MATCHED **/
		{
			LCD_sendcmd(LCD_CLEAR); /** CLEAR THE LCD **/
     25c:	81 e0       	ldi	r24, 0x01	; 1
     25e:	0e 94 5a 04 	call	0x8b4	; 0x8b4 <LCD_sendcmd>
			TMR0_delayms(20);
     262:	64 e1       	ldi	r22, 0x14	; 20
     264:	70 e0       	ldi	r23, 0x00	; 0
     266:	80 e0       	ldi	r24, 0x00	; 0
     268:	90 e0       	ldi	r25, 0x00	; 0
     26a:	0e 94 e2 07 	call	0xfc4	; 0xfc4 <TMR0_delayms>
			
			LCD_goto(0,0);
     26e:	60 e0       	ldi	r22, 0x00	; 0
     270:	80 e0       	ldi	r24, 0x00	; 0
     272:	0e 94 3e 05 	call	0xa7c	; 0xa7c <LCD_goto>
			LCD_writestr("PIN NOT MATCHED !"); /** DISPLAY MESSAGE FOR 1 SEC **/
     276:	82 e0       	ldi	r24, 0x02	; 2
     278:	91 e0       	ldi	r25, 0x01	; 1
     27a:	0e 94 2b 05 	call	0xa56	; 0xa56 <LCD_writestr>
			TMR0_delayms(500);
     27e:	64 ef       	ldi	r22, 0xF4	; 244
     280:	71 e0       	ldi	r23, 0x01	; 1
     282:	80 e0       	ldi	r24, 0x00	; 0
     284:	90 e0       	ldi	r25, 0x00	; 0
     286:	0e 94 e2 07 	call	0xfc4	; 0xfc4 <TMR0_delayms>
			
			LCD_sendcmd(LCD_CLEAR); /** CLEAR THE LCD **/
     28a:	81 e0       	ldi	r24, 0x01	; 1
     28c:	0e 94 5a 04 	call	0x8b4	; 0x8b4 <LCD_sendcmd>
			TMR0_delayms(20);
     290:	64 e1       	ldi	r22, 0x14	; 20
     292:	70 e0       	ldi	r23, 0x00	; 0
     294:	80 e0       	ldi	r24, 0x00	; 0
     296:	90 e0       	ldi	r25, 0x00	; 0
     298:	0e 94 e2 07 	call	0xfc4	; 0xfc4 <TMR0_delayms>
			
			APP_readuserpin(); /** READ THE PIN AGAIN **/
     29c:	0e 94 9d 00 	call	0x13a	; 0x13a <APP_readuserpin>
		}
		
		u8_a_pintry++ ; /** TRY FOR MORE ATTEMPT **/
     2a0:	80 91 b1 01 	lds	r24, 0x01B1	; 0x8001b1 <u8_a_pintry>
     2a4:	8f 5f       	subi	r24, 0xFF	; 255
     2a6:	80 93 b1 01 	sts	0x01B1, r24	; 0x8001b1 <u8_a_pintry>
		
		if (u8_a_pintry > 1)
     2aa:	82 30       	cpi	r24, 0x02	; 2
     2ac:	88 f0       	brcs	.+34     	; 0x2d0 <APP_startcardcomm+0xf6>
		{
			while (1)
			{
				BUZZ_on();
     2ae:	0e 94 44 03 	call	0x688	; 0x688 <BUZZ_on>
				TMR0_delayms(500);
     2b2:	64 ef       	ldi	r22, 0xF4	; 244
     2b4:	71 e0       	ldi	r23, 0x01	; 1
     2b6:	80 e0       	ldi	r24, 0x00	; 0
     2b8:	90 e0       	ldi	r25, 0x00	; 0
     2ba:	0e 94 e2 07 	call	0xfc4	; 0xfc4 <TMR0_delayms>
				
				BUZZ_off();
     2be:	0e 94 4a 03 	call	0x694	; 0x694 <BUZZ_off>
				TMR0_delayms(500);
     2c2:	64 ef       	ldi	r22, 0xF4	; 244
     2c4:	71 e0       	ldi	r23, 0x01	; 1
     2c6:	80 e0       	ldi	r24, 0x00	; 0
     2c8:	90 e0       	ldi	r25, 0x00	; 0
     2ca:	0e 94 e2 07 	call	0xfc4	; 0xfc4 <TMR0_delayms>
     2ce:	ef cf       	rjmp	.-34     	; 0x2ae <APP_startcardcomm+0xd4>
	LCD_writestr(u8_g_cardpin);
	TMR0_delayms(500);
	
	/** VERIFY THE USER INSERTED PIN **/
	u8_a_pinnotmatched = 1 ;
	while (u8_a_pintry <= 1 && u8_a_pinnotmatched != 0  ) /** CHECK PIN MATCHING FOR TWO TIMES **/
     2d0:	80 91 b1 01 	lds	r24, 0x01B1	; 0x8001b1 <u8_a_pintry>
     2d4:	82 30       	cpi	r24, 0x02	; 2
     2d6:	20 f4       	brcc	.+8      	; 0x2e0 <APP_startcardcomm+0x106>
     2d8:	80 91 60 00 	lds	r24, 0x0060	; 0x800060 <__DATA_REGION_ORIGIN__>
     2dc:	81 11       	cpse	r24, r1
     2de:	b3 cf       	rjmp	.-154    	; 0x246 <APP_startcardcomm+0x6c>
     2e0:	08 95       	ret

000002e2 <APP_getamount>:
}


/** FUNCTION TO GET THE AMOUNT OF MONEY NEEDED **/
void APP_getamount()
{
     2e2:	0f 93       	push	r16
     2e4:	1f 93       	push	r17
     2e6:	cf 93       	push	r28
     2e8:	df 93       	push	r29
	uint16_t u16_l_amout = 0 , u8_a_pos = 1000 ;
	
	LCD_sendcmd(LCD_CLEAR); /** CLEAR THE LCD **/
     2ea:	81 e0       	ldi	r24, 0x01	; 1
     2ec:	0e 94 5a 04 	call	0x8b4	; 0x8b4 <LCD_sendcmd>
	TMR0_delayms(20);
     2f0:	64 e1       	ldi	r22, 0x14	; 20
     2f2:	70 e0       	ldi	r23, 0x00	; 0
     2f4:	80 e0       	ldi	r24, 0x00	; 0
     2f6:	90 e0       	ldi	r25, 0x00	; 0
     2f8:	0e 94 e2 07 	call	0xfc4	; 0xfc4 <TMR0_delayms>
	
	LCD_writestr("ENTER THE AMOUNT"); /** ASK USER TO ENTER THE AMOUNT NEEDED **/
     2fc:	84 e1       	ldi	r24, 0x14	; 20
     2fe:	91 e0       	ldi	r25, 0x01	; 1
     300:	0e 94 2b 05 	call	0xa56	; 0xa56 <LCD_writestr>
	TMR0_delayms(200);
     304:	68 ec       	ldi	r22, 0xC8	; 200
     306:	70 e0       	ldi	r23, 0x00	; 0
     308:	80 e0       	ldi	r24, 0x00	; 0
     30a:	90 e0       	ldi	r25, 0x00	; 0
     30c:	0e 94 e2 07 	call	0xfc4	; 0xfc4 <TMR0_delayms>
	
	LCD_goto(1,2);
     310:	62 e0       	ldi	r22, 0x02	; 2
     312:	81 e0       	ldi	r24, 0x01	; 1
     314:	0e 94 3e 05 	call	0xa7c	; 0xa7c <LCD_goto>

	for(counter = 0 ; counter <= AMOUNT_DIGITS ; counter++)
     318:	10 92 b8 01 	sts	0x01B8, r1	; 0x8001b8 <counter>


/** FUNCTION TO GET THE AMOUNT OF MONEY NEEDED **/
void APP_getamount()
{
	uint16_t u16_l_amout = 0 , u8_a_pos = 1000 ;
     31c:	c8 ee       	ldi	r28, 0xE8	; 232
     31e:	d3 e0       	ldi	r29, 0x03	; 3
     320:	00 e0       	ldi	r16, 0x00	; 0
     322:	10 e0       	ldi	r17, 0x00	; 0
	LCD_writestr("ENTER THE AMOUNT"); /** ASK USER TO ENTER THE AMOUNT NEEDED **/
	TMR0_delayms(200);
	
	LCD_goto(1,2);

	for(counter = 0 ; counter <= AMOUNT_DIGITS ; counter++)
     324:	45 c0       	rjmp	.+138    	; 0x3b0 <APP_getamount+0xce>
	{
		u8_a_pressednum = KEYPAD_readFail ;
     326:	91 e0       	ldi	r25, 0x01	; 1
     328:	90 93 b3 01 	sts	0x01B3, r25	; 0x8001b3 <u8_a_pressednum>
		
		if (counter == DECIMEL_POS)
     32c:	84 30       	cpi	r24, 0x04	; 4
     32e:	39 f4       	brne	.+14     	; 0x33e <APP_getamount+0x5c>
		{
			LCD_writechar('.'); /** DECIMEL POINT **/
     330:	8e e2       	ldi	r24, 0x2E	; 46
     332:	0e 94 e4 04 	call	0x9c8	; 0x9c8 <LCD_writechar>
			u8_returnstatus = KEYPAD_readFail; /** REINITIALIZE STATE TO ACCEPT NEW NUMBER **/
     336:	81 e0       	ldi	r24, 0x01	; 1
     338:	80 93 61 00 	sts	0x0061, r24	; 0x800061 <u8_returnstatus>
			continue ;
     33c:	34 c0       	rjmp	.+104    	; 0x3a6 <APP_getamount+0xc4>
		}
		
		while ((KEYPAD_read(&u8_a_pressednum) == KEYPAD_readFail)); /** POLLING UNTILL NUMBER PRESSED **/
     33e:	83 eb       	ldi	r24, 0xB3	; 179
     340:	91 e0       	ldi	r25, 0x01	; 1
     342:	0e 94 98 03 	call	0x730	; 0x730 <KEYPAD_read>
     346:	81 30       	cpi	r24, 0x01	; 1
     348:	d1 f3       	breq	.-12     	; 0x33e <APP_getamount+0x5c>
		
		TMR0_delayms(200);
     34a:	68 ec       	ldi	r22, 0xC8	; 200
     34c:	70 e0       	ldi	r23, 0x00	; 0
     34e:	80 e0       	ldi	r24, 0x00	; 0
     350:	90 e0       	ldi	r25, 0x00	; 0
     352:	0e 94 e2 07 	call	0xfc4	; 0xfc4 <TMR0_delayms>
		LCD_writechar(u8_a_pressednum);
     356:	80 91 b3 01 	lds	r24, 0x01B3	; 0x8001b3 <u8_a_pressednum>
     35a:	0e 94 e4 04 	call	0x9c8	; 0x9c8 <LCD_writechar>
		
		if (counter < DECIMEL_POS) 
     35e:	80 91 b8 01 	lds	r24, 0x01B8	; 0x8001b8 <counter>
     362:	84 30       	cpi	r24, 0x04	; 4
     364:	c8 f4       	brcc	.+50     	; 0x398 <APP_getamount+0xb6>
		{
			u16_l_amout += (u8_a_pressednum - 48) * u8_a_pos ; /** CHARACTER TO INTEGER **/
     366:	80 91 b3 01 	lds	r24, 0x01B3	; 0x8001b3 <u8_a_pressednum>
     36a:	90 e0       	ldi	r25, 0x00	; 0
     36c:	c0 97       	sbiw	r24, 0x30	; 48
     36e:	8c 9f       	mul	r24, r28
     370:	90 01       	movw	r18, r0
     372:	8d 9f       	mul	r24, r29
     374:	30 0d       	add	r19, r0
     376:	9c 9f       	mul	r25, r28
     378:	30 0d       	add	r19, r0
     37a:	11 24       	eor	r1, r1
     37c:	02 0f       	add	r16, r18
     37e:	13 1f       	adc	r17, r19
			u8_a_pos /= 10 ; /** GO TO THE NEXT POSITION **/
     380:	9e 01       	movw	r18, r28
     382:	ad ec       	ldi	r26, 0xCD	; 205
     384:	bc ec       	ldi	r27, 0xCC	; 204
     386:	0e 94 09 0a 	call	0x1412	; 0x1412 <__umulhisi3>
     38a:	ec 01       	movw	r28, r24
     38c:	d6 95       	lsr	r29
     38e:	c7 95       	ror	r28
     390:	d6 95       	lsr	r29
     392:	c7 95       	ror	r28
     394:	d6 95       	lsr	r29
     396:	c7 95       	ror	r28
		}
		
		u16_g_amount = u16_l_amout ; /** STORE THE NEEDED AMOUNT GLOBALLY **/
     398:	10 93 af 01 	sts	0x01AF, r17	; 0x8001af <__data_end+0x1>
     39c:	00 93 ae 01 	sts	0x01AE, r16	; 0x8001ae <__data_end>
		
		u8_returnstatus = KEYPAD_readFail; /** REINITIALIZE STATE TO ACCEPT NEW NUMBER **/
     3a0:	81 e0       	ldi	r24, 0x01	; 1
     3a2:	80 93 61 00 	sts	0x0061, r24	; 0x800061 <u8_returnstatus>
	LCD_writestr("ENTER THE AMOUNT"); /** ASK USER TO ENTER THE AMOUNT NEEDED **/
	TMR0_delayms(200);
	
	LCD_goto(1,2);

	for(counter = 0 ; counter <= AMOUNT_DIGITS ; counter++)
     3a6:	80 91 b8 01 	lds	r24, 0x01B8	; 0x8001b8 <counter>
     3aa:	8f 5f       	subi	r24, 0xFF	; 255
     3ac:	80 93 b8 01 	sts	0x01B8, r24	; 0x8001b8 <counter>
     3b0:	80 91 b8 01 	lds	r24, 0x01B8	; 0x8001b8 <counter>
     3b4:	87 30       	cpi	r24, 0x07	; 7
     3b6:	08 f4       	brcc	.+2      	; 0x3ba <APP_getamount+0xd8>
     3b8:	b6 cf       	rjmp	.-148    	; 0x326 <APP_getamount+0x44>
		
		u16_g_amount = u16_l_amout ; /** STORE THE NEEDED AMOUNT GLOBALLY **/
		
		u8_returnstatus = KEYPAD_readFail; /** REINITIALIZE STATE TO ACCEPT NEW NUMBER **/
	}
	TMR0_delayms(50);
     3ba:	62 e3       	ldi	r22, 0x32	; 50
     3bc:	70 e0       	ldi	r23, 0x00	; 0
     3be:	80 e0       	ldi	r24, 0x00	; 0
     3c0:	90 e0       	ldi	r25, 0x00	; 0
     3c2:	0e 94 e2 07 	call	0xfc4	; 0xfc4 <TMR0_delayms>
}
     3c6:	df 91       	pop	r29
     3c8:	cf 91       	pop	r28
     3ca:	1f 91       	pop	r17
     3cc:	0f 91       	pop	r16
     3ce:	08 95       	ret

000003d0 <APP_cardvalidate>:

/** FUNCTION TO VALIDATE THE CARD DATA **/
void APP_cardvalidate(void)
{
     3d0:	cf 92       	push	r12
     3d2:	df 92       	push	r13
     3d4:	ef 92       	push	r14
     3d6:	ff 92       	push	r15
     3d8:	0f 93       	push	r16
     3da:	1f 93       	push	r17
     3dc:	cf 93       	push	r28
     3de:	df 93       	push	r29
	uint8_t u8_l_cards = 0  , u8_l_panstate = 1 , u8_l_cardnum = 0; /** COUNTER FOR NUMBER OF CARDS **/
     3e0:	81 e0       	ldi	r24, 0x01	; 1
	
	for (u8_l_cards = 0 ; u8_l_cards < NUMBER_OF_CARDS ; u8_l_cards++)
     3e2:	c0 e0       	ldi	r28, 0x00	; 0
     3e4:	0d c0       	rjmp	.+26     	; 0x400 <__EEPROM_REGION_LENGTH__>
	{
		/** VALIDATING CARD PAN **/
		u8_l_panstate = strcmp(database[u8_l_cards].u8_a_card_pan , u8_g_cardpan);
     3e6:	29 e1       	ldi	r18, 0x19	; 25
     3e8:	c2 9f       	mul	r28, r18
     3ea:	c0 01       	movw	r24, r0
     3ec:	11 24       	eor	r1, r1
     3ee:	6f e6       	ldi	r22, 0x6F	; 111
     3f0:	70 e0       	ldi	r23, 0x00	; 0
     3f2:	83 57       	subi	r24, 0x73	; 115
     3f4:	9f 4f       	sbci	r25, 0xFF	; 255
     3f6:	0e 94 3a 0a 	call	0x1474	; 0x1474 <strcmp>
		
		if (!u8_l_panstate) /** PAN FOUND IN THE DATABASE **/
     3fa:	88 23       	and	r24, r24
     3fc:	21 f0       	breq	.+8      	; 0x406 <__EEPROM_REGION_LENGTH__+0x6>
/** FUNCTION TO VALIDATE THE CARD DATA **/
void APP_cardvalidate(void)
{
	uint8_t u8_l_cards = 0  , u8_l_panstate = 1 , u8_l_cardnum = 0; /** COUNTER FOR NUMBER OF CARDS **/
	
	for (u8_l_cards = 0 ; u8_l_cards < NUMBER_OF_CARDS ; u8_l_cards++)
     3fe:	cf 5f       	subi	r28, 0xFF	; 255
     400:	c3 30       	cpi	r28, 0x03	; 3
     402:	88 f3       	brcs	.-30     	; 0x3e6 <APP_cardvalidate+0x16>
}

/** FUNCTION TO VALIDATE THE CARD DATA **/
void APP_cardvalidate(void)
{
	uint8_t u8_l_cards = 0  , u8_l_panstate = 1 , u8_l_cardnum = 0; /** COUNTER FOR NUMBER OF CARDS **/
     404:	c0 e0       	ldi	r28, 0x00	; 0
			u8_l_cardnum = u8_l_cards ; /** GET THE CARD INDEX IN THE DATABASE **/ 
			break ; 
		}
	}
	
	if (!u8_l_panstate) /** CONTINUE ONLY IF THE CARD IS FOUND IN THE DATABASE **/
     406:	81 11       	cpse	r24, r1
     408:	eb c0       	rjmp	.+470    	; 0x5e0 <__EEPROM_REGION_LENGTH__+0x1e0>
	{
		/** CHECK IF THE CARD RUNNING / BLOCKED **/
		if(database[u8_l_cardnum].en_a_cardstatus == BLOCKED)
     40a:	d0 e0       	ldi	r29, 0x00	; 0
     40c:	89 e1       	ldi	r24, 0x19	; 25
     40e:	8c 9f       	mul	r24, r28
     410:	f0 01       	movw	r30, r0
     412:	8d 9f       	mul	r24, r29
     414:	f0 0d       	add	r31, r0
     416:	11 24       	eor	r1, r1
     418:	e8 57       	subi	r30, 0x78	; 120
     41a:	ff 4f       	sbci	r31, 0xFF	; 255
     41c:	84 81       	ldd	r24, Z+4	; 0x04
     41e:	81 11       	cpse	r24, r1
     420:	14 c0       	rjmp	.+40     	; 0x44a <__EEPROM_REGION_LENGTH__+0x4a>
		{
			BUZZ_on();  /** ALARM IS ON **/
     422:	0e 94 44 03 	call	0x688	; 0x688 <BUZZ_on>
			
			/** DISPLAY STATUS OVER THE LCD **/
			LCD_sendcmd(LCD_CLEAR);
     426:	81 e0       	ldi	r24, 0x01	; 1
     428:	0e 94 5a 04 	call	0x8b4	; 0x8b4 <LCD_sendcmd>
			TMR0_delayms(20);
     42c:	64 e1       	ldi	r22, 0x14	; 20
     42e:	70 e0       	ldi	r23, 0x00	; 0
     430:	80 e0       	ldi	r24, 0x00	; 0
     432:	90 e0       	ldi	r25, 0x00	; 0
     434:	0e 94 e2 07 	call	0xfc4	; 0xfc4 <TMR0_delayms>
			
			LCD_goto(0,0);
     438:	60 e0       	ldi	r22, 0x00	; 0
     43a:	80 e0       	ldi	r24, 0x00	; 0
     43c:	0e 94 3e 05 	call	0xa7c	; 0xa7c <LCD_goto>
			LCD_writestr("CARD IS STOLEN");
     440:	85 e2       	ldi	r24, 0x25	; 37
     442:	91 e0       	ldi	r25, 0x01	; 1
     444:	0e 94 2b 05 	call	0xa56	; 0xa56 <LCD_writestr>
     448:	ed c0       	rjmp	.+474    	; 0x624 <__EEPROM_REGION_LENGTH__+0x224>
		}
		
		/** CHECK IF BALANCE IS ENOUGH **/
		else if (database[u8_l_cardnum].f_a_cardbalance < u16_g_amount)
     44a:	89 e1       	ldi	r24, 0x19	; 25
     44c:	8c 9f       	mul	r24, r28
     44e:	f0 01       	movw	r30, r0
     450:	8d 9f       	mul	r24, r29
     452:	f0 0d       	add	r31, r0
     454:	11 24       	eor	r1, r1
     456:	e8 57       	subi	r30, 0x78	; 120
     458:	ff 4f       	sbci	r31, 0xFF	; 255
     45a:	c0 80       	ld	r12, Z
     45c:	d1 80       	ldd	r13, Z+1	; 0x01
     45e:	e2 80       	ldd	r14, Z+2	; 0x02
     460:	f3 80       	ldd	r15, Z+3	; 0x03
     462:	00 91 ae 01 	lds	r16, 0x01AE	; 0x8001ae <__data_end>
     466:	10 91 af 01 	lds	r17, 0x01AF	; 0x8001af <__data_end+0x1>
     46a:	b8 01       	movw	r22, r16
     46c:	80 e0       	ldi	r24, 0x00	; 0
     46e:	90 e0       	ldi	r25, 0x00	; 0
     470:	0e 94 38 09 	call	0x1270	; 0x1270 <__floatunsisf>
     474:	9b 01       	movw	r18, r22
     476:	ac 01       	movw	r20, r24
     478:	c7 01       	movw	r24, r14
     47a:	b6 01       	movw	r22, r12
     47c:	0e 94 8b 08 	call	0x1116	; 0x1116 <__cmpsf2>
     480:	88 23       	and	r24, r24
     482:	d4 f4       	brge	.+52     	; 0x4b8 <__EEPROM_REGION_LENGTH__+0xb8>
		{
			LCD_sendcmd(LCD_CLEAR);
     484:	81 e0       	ldi	r24, 0x01	; 1
     486:	0e 94 5a 04 	call	0x8b4	; 0x8b4 <LCD_sendcmd>
			TMR0_delayms(20);
     48a:	64 e1       	ldi	r22, 0x14	; 20
     48c:	70 e0       	ldi	r23, 0x00	; 0
     48e:	80 e0       	ldi	r24, 0x00	; 0
     490:	90 e0       	ldi	r25, 0x00	; 0
     492:	0e 94 e2 07 	call	0xfc4	; 0xfc4 <TMR0_delayms>
			
			LCD_goto(0,1);
     496:	61 e0       	ldi	r22, 0x01	; 1
     498:	80 e0       	ldi	r24, 0x00	; 0
     49a:	0e 94 3e 05 	call	0xa7c	; 0xa7c <LCD_goto>
			LCD_writestr("INSUFFICIENT ");
     49e:	84 e3       	ldi	r24, 0x34	; 52
     4a0:	91 e0       	ldi	r25, 0x01	; 1
     4a2:	0e 94 2b 05 	call	0xa56	; 0xa56 <LCD_writestr>
			
			LCD_goto(1,3);
     4a6:	63 e0       	ldi	r22, 0x03	; 3
     4a8:	81 e0       	ldi	r24, 0x01	; 1
     4aa:	0e 94 3e 05 	call	0xa7c	; 0xa7c <LCD_goto>
			LCD_writestr("FUND");
     4ae:	82 e4       	ldi	r24, 0x42	; 66
     4b0:	91 e0       	ldi	r25, 0x01	; 1
     4b2:	0e 94 2b 05 	call	0xa56	; 0xa56 <LCD_writestr>
     4b6:	b6 c0       	rjmp	.+364    	; 0x624 <__EEPROM_REGION_LENGTH__+0x224>
		}
		
		/** CHECK IF NEEDED AMOUNT MORE THAN THE TRANSACTION AMOUNT **/
		else if (u16_g_amount > MAX_AMOUNT) /** MAX AMOUNT FOR EACH TRANSACTION IS 5000 **/
     4b8:	09 38       	cpi	r16, 0x89	; 137
     4ba:	13 41       	sbci	r17, 0x13	; 19
     4bc:	00 f1       	brcs	.+64     	; 0x4fe <__EEPROM_REGION_LENGTH__+0xfe>
		{
			LCD_sendcmd(LCD_CLEAR);
     4be:	81 e0       	ldi	r24, 0x01	; 1
     4c0:	0e 94 5a 04 	call	0x8b4	; 0x8b4 <LCD_sendcmd>
			TMR0_delayms(20);
     4c4:	64 e1       	ldi	r22, 0x14	; 20
     4c6:	70 e0       	ldi	r23, 0x00	; 0
     4c8:	80 e0       	ldi	r24, 0x00	; 0
     4ca:	90 e0       	ldi	r25, 0x00	; 0
     4cc:	0e 94 e2 07 	call	0xfc4	; 0xfc4 <TMR0_delayms>
			
			LCD_goto(0 , 0);
     4d0:	60 e0       	ldi	r22, 0x00	; 0
     4d2:	80 e0       	ldi	r24, 0x00	; 0
     4d4:	0e 94 3e 05 	call	0xa7c	; 0xa7c <LCD_goto>
			LCD_writestr("MAX TRANSACTION ");
     4d8:	87 e4       	ldi	r24, 0x47	; 71
     4da:	91 e0       	ldi	r25, 0x01	; 1
     4dc:	0e 94 2b 05 	call	0xa56	; 0xa56 <LCD_writestr>
			
			LCD_goto(1 , 0);
     4e0:	60 e0       	ldi	r22, 0x00	; 0
     4e2:	81 e0       	ldi	r24, 0x01	; 1
     4e4:	0e 94 3e 05 	call	0xa7c	; 0xa7c <LCD_goto>
			LCD_writestr("AMOUNT EXCEEDED");
     4e8:	88 e5       	ldi	r24, 0x58	; 88
     4ea:	91 e0       	ldi	r25, 0x01	; 1
     4ec:	0e 94 2b 05 	call	0xa56	; 0xa56 <LCD_writestr>
			
			TMR0_delayms(1000);
     4f0:	68 ee       	ldi	r22, 0xE8	; 232
     4f2:	73 e0       	ldi	r23, 0x03	; 3
     4f4:	80 e0       	ldi	r24, 0x00	; 0
     4f6:	90 e0       	ldi	r25, 0x00	; 0
     4f8:	0e 94 e2 07 	call	0xfc4	; 0xfc4 <TMR0_delayms>
     4fc:	93 c0       	rjmp	.+294    	; 0x624 <__EEPROM_REGION_LENGTH__+0x224>
		}

		else
		{
			LCD_sendcmd(LCD_CLEAR);
     4fe:	81 e0       	ldi	r24, 0x01	; 1
     500:	0e 94 5a 04 	call	0x8b4	; 0x8b4 <LCD_sendcmd>
			TMR0_delayms(20);
     504:	64 e1       	ldi	r22, 0x14	; 20
     506:	70 e0       	ldi	r23, 0x00	; 0
     508:	80 e0       	ldi	r24, 0x00	; 0
     50a:	90 e0       	ldi	r25, 0x00	; 0
     50c:	0e 94 e2 07 	call	0xfc4	; 0xfc4 <TMR0_delayms>
			
			LCD_goto(0,3);
     510:	63 e0       	ldi	r22, 0x03	; 3
     512:	80 e0       	ldi	r24, 0x00	; 0
     514:	0e 94 3e 05 	call	0xa7c	; 0xa7c <LCD_goto>
			LCD_writestr("APPROVED");
     518:	88 e6       	ldi	r24, 0x68	; 104
     51a:	91 e0       	ldi	r25, 0x01	; 1
     51c:	0e 94 2b 05 	call	0xa56	; 0xa56 <LCD_writestr>
			LCD_goto(1,3);
     520:	63 e0       	ldi	r22, 0x03	; 3
     522:	81 e0       	ldi	r24, 0x01	; 1
     524:	0e 94 3e 05 	call	0xa7c	; 0xa7c <LCD_goto>
			LCD_writestr("TRANSACTION");
     528:	81 e7       	ldi	r24, 0x71	; 113
     52a:	91 e0       	ldi	r25, 0x01	; 1
     52c:	0e 94 2b 05 	call	0xa56	; 0xa56 <LCD_writestr>
			
			TMR0_delayms(1000);
     530:	68 ee       	ldi	r22, 0xE8	; 232
     532:	73 e0       	ldi	r23, 0x03	; 3
     534:	80 e0       	ldi	r24, 0x00	; 0
     536:	90 e0       	ldi	r25, 0x00	; 0
     538:	0e 94 e2 07 	call	0xfc4	; 0xfc4 <TMR0_delayms>
			
			LCD_sendcmd(LCD_CLEAR);
     53c:	81 e0       	ldi	r24, 0x01	; 1
     53e:	0e 94 5a 04 	call	0x8b4	; 0x8b4 <LCD_sendcmd>
			TMR0_delayms(20);
     542:	64 e1       	ldi	r22, 0x14	; 20
     544:	70 e0       	ldi	r23, 0x00	; 0
     546:	80 e0       	ldi	r24, 0x00	; 0
     548:	90 e0       	ldi	r25, 0x00	; 0
     54a:	0e 94 e2 07 	call	0xfc4	; 0xfc4 <TMR0_delayms>
			
			/** CALCULATE THE NEW BALANCE **/
			database[u8_l_cardnum].f_a_cardbalance -= u16_g_amount ; 
     54e:	29 e1       	ldi	r18, 0x19	; 25
     550:	2c 9f       	mul	r18, r28
     552:	c0 01       	movw	r24, r0
     554:	2d 9f       	mul	r18, r29
     556:	90 0d       	add	r25, r0
     558:	11 24       	eor	r1, r1
     55a:	ec 01       	movw	r28, r24
     55c:	c8 57       	subi	r28, 0x78	; 120
     55e:	df 4f       	sbci	r29, 0xFF	; 255
     560:	60 91 ae 01 	lds	r22, 0x01AE	; 0x8001ae <__data_end>
     564:	70 91 af 01 	lds	r23, 0x01AF	; 0x8001af <__data_end+0x1>
     568:	80 e0       	ldi	r24, 0x00	; 0
     56a:	90 e0       	ldi	r25, 0x00	; 0
     56c:	0e 94 38 09 	call	0x1270	; 0x1270 <__floatunsisf>
     570:	9b 01       	movw	r18, r22
     572:	ac 01       	movw	r20, r24
     574:	68 81       	ld	r22, Y
     576:	79 81       	ldd	r23, Y+1	; 0x01
     578:	8a 81       	ldd	r24, Y+2	; 0x02
     57a:	9b 81       	ldd	r25, Y+3	; 0x03
     57c:	0e 94 1e 08 	call	0x103c	; 0x103c <__subsf3>
     580:	68 83       	st	Y, r22
     582:	79 83       	std	Y+1, r23	; 0x01
     584:	8a 83       	std	Y+2, r24	; 0x02
     586:	9b 83       	std	Y+3, r25	; 0x03
			
			LCD_goto(0,0);
     588:	60 e0       	ldi	r22, 0x00	; 0
     58a:	80 e0       	ldi	r24, 0x00	; 0
     58c:	0e 94 3e 05 	call	0xa7c	; 0xa7c <LCD_goto>
			LCD_writestr("NEW BALANCE :");
     590:	8d e7       	ldi	r24, 0x7D	; 125
     592:	91 e0       	ldi	r25, 0x01	; 1
     594:	0e 94 2b 05 	call	0xa56	; 0xa56 <LCD_writestr>
			LCD_goto(1,4);
     598:	64 e0       	ldi	r22, 0x04	; 4
     59a:	81 e0       	ldi	r24, 0x01	; 1
     59c:	0e 94 3e 05 	call	0xa7c	; 0xa7c <LCD_goto>
			LCD_writeint(database[u8_l_cardnum].f_a_cardbalance);
     5a0:	68 81       	ld	r22, Y
     5a2:	79 81       	ldd	r23, Y+1	; 0x01
     5a4:	8a 81       	ldd	r24, Y+2	; 0x02
     5a6:	9b 81       	ldd	r25, Y+3	; 0x03
     5a8:	0e 94 02 09 	call	0x1204	; 0x1204 <__fixsfsi>
     5ac:	0e 94 71 05 	call	0xae2	; 0xae2 <LCD_writeint>
			
			TMR0_delayms(1000);
     5b0:	68 ee       	ldi	r22, 0xE8	; 232
     5b2:	73 e0       	ldi	r23, 0x03	; 3
     5b4:	80 e0       	ldi	r24, 0x00	; 0
     5b6:	90 e0       	ldi	r25, 0x00	; 0
     5b8:	0e 94 e2 07 	call	0xfc4	; 0xfc4 <TMR0_delayms>
			
			LCD_sendcmd(LCD_CLEAR);
     5bc:	81 e0       	ldi	r24, 0x01	; 1
     5be:	0e 94 5a 04 	call	0x8b4	; 0x8b4 <LCD_sendcmd>
			TMR0_delayms(20);
     5c2:	64 e1       	ldi	r22, 0x14	; 20
     5c4:	70 e0       	ldi	r23, 0x00	; 0
     5c6:	80 e0       	ldi	r24, 0x00	; 0
     5c8:	90 e0       	ldi	r25, 0x00	; 0
     5ca:	0e 94 e2 07 	call	0xfc4	; 0xfc4 <TMR0_delayms>
			LCD_goto(0,0);
     5ce:	60 e0       	ldi	r22, 0x00	; 0
     5d0:	80 e0       	ldi	r24, 0x00	; 0
     5d2:	0e 94 3e 05 	call	0xa7c	; 0xa7c <LCD_goto>
			LCD_writestr("EJECTING CARD");
     5d6:	8b e8       	ldi	r24, 0x8B	; 139
     5d8:	91 e0       	ldi	r25, 0x01	; 1
     5da:	0e 94 2b 05 	call	0xa56	; 0xa56 <LCD_writestr>
     5de:	22 c0       	rjmp	.+68     	; 0x624 <__EEPROM_REGION_LENGTH__+0x224>
		
	}
	
	else
	{
		BUZZ_on();  /** ALARM IS ON **/
     5e0:	0e 94 44 03 	call	0x688	; 0x688 <BUZZ_on>
		
		/** DISPLAY STATUS OVER THE LCD **/
		LCD_sendcmd(LCD_CLEAR);
     5e4:	81 e0       	ldi	r24, 0x01	; 1
     5e6:	0e 94 5a 04 	call	0x8b4	; 0x8b4 <LCD_sendcmd>
		TMR0_delayms(20);
     5ea:	64 e1       	ldi	r22, 0x14	; 20
     5ec:	70 e0       	ldi	r23, 0x00	; 0
     5ee:	80 e0       	ldi	r24, 0x00	; 0
     5f0:	90 e0       	ldi	r25, 0x00	; 0
     5f2:	0e 94 e2 07 	call	0xfc4	; 0xfc4 <TMR0_delayms>
		
		LCD_goto(0,0);
     5f6:	60 e0       	ldi	r22, 0x00	; 0
     5f8:	80 e0       	ldi	r24, 0x00	; 0
     5fa:	0e 94 3e 05 	call	0xa7c	; 0xa7c <LCD_goto>
		LCD_writestr("THIS IS A");
     5fe:	89 e9       	ldi	r24, 0x99	; 153
     600:	91 e0       	ldi	r25, 0x01	; 1
     602:	0e 94 2b 05 	call	0xa56	; 0xa56 <LCD_writestr>
		LCD_goto(1,0);
     606:	60 e0       	ldi	r22, 0x00	; 0
     608:	81 e0       	ldi	r24, 0x01	; 1
     60a:	0e 94 3e 05 	call	0xa7c	; 0xa7c <LCD_goto>
		LCD_writestr("FRAUD CARD");
     60e:	83 ea       	ldi	r24, 0xA3	; 163
     610:	91 e0       	ldi	r25, 0x01	; 1
     612:	0e 94 2b 05 	call	0xa56	; 0xa56 <LCD_writestr>
		
		/** DISPLAY BELL SHAPE **/
		LCD_goto(0 , 15);
     616:	6f e0       	ldi	r22, 0x0F	; 15
     618:	80 e0       	ldi	r24, 0x00	; 0
     61a:	0e 94 3e 05 	call	0xa7c	; 0xa7c <LCD_goto>
		LCD_writechar(bell);
     61e:	80 e0       	ldi	r24, 0x00	; 0
     620:	0e 94 e4 04 	call	0x9c8	; 0x9c8 <LCD_writechar>
	}
}
     624:	df 91       	pop	r29
     626:	cf 91       	pop	r28
     628:	1f 91       	pop	r17
     62a:	0f 91       	pop	r16
     62c:	ff 90       	pop	r15
     62e:	ef 90       	pop	r14
     630:	df 90       	pop	r13
     632:	cf 90       	pop	r12
     634:	08 95       	ret

00000636 <Button_init>:
/* RETURN    : void                                              */
/*****************************************************************/
void Button_init(uint8_t Button_port , uint8_t Button_pin)
{
	/** SET THE DIRECTION OF BUTTON AS INPUT **/
	DIO_setpindir(Button_port , Button_pin , DIO_PIN_INPUT);
     636:	40 e0       	ldi	r20, 0x00	; 0
     638:	0e 94 09 06 	call	0xc12	; 0xc12 <DIO_setpindir>
     63c:	08 95       	ret

0000063e <Is_pressed>:
/* FUNCTION TO CHECK THE BUTTON STATUS PRESSED OR NOT            */
/* ARGUMENTS : TAKES THE BUTTON PIN                              */
/* RETURN    : RETURNS BUTTON_t type                             */
/*****************************************************************/
button_t Is_pressed(uint8_t Button_port , uint8_t Button_pin , uint8_t * value)
{
     63e:	0f 93       	push	r16
     640:	1f 93       	push	r17
     642:	cf 93       	push	r28
     644:	df 93       	push	r29
     646:	1f 92       	push	r1
     648:	cd b7       	in	r28, 0x3d	; 61
     64a:	de b7       	in	r29, 0x3e	; 62
     64c:	8a 01       	movw	r16, r20
	button_t button_state = Button_Notpressed ; /* VARIABLE TO HOLD THE RETURN TYPE OF THE FUNCTION */
	
	PinRead_t pin_status = NOT_VALID_READ ;  /** VARIABLE TO HOLD THE STATE OF PIN READ **/
	
	uint8_t pvalue = 0 ;
     64e:	19 82       	std	Y+1, r1	; 0x01
	
	pin_status = DIO_readpin(Button_port , Button_pin , &pvalue); /** READ THE BUTTON PIN VALUE */
     650:	ae 01       	movw	r20, r28
     652:	4f 5f       	subi	r20, 0xFF	; 255
     654:	5f 4f       	sbci	r21, 0xFF	; 255
     656:	0e 94 07 07 	call	0xe0e	; 0xe0e <DIO_readpin>
	
	if (!pin_status) 
     65a:	81 11       	cpse	r24, r1
     65c:	05 c0       	rjmp	.+10     	; 0x668 <Is_pressed+0x2a>
	{
		button_state = Button_pressed ; /** RETURN THE STATUS AS BUTTON IS PRESSED **/
		*value = pvalue ;
     65e:	89 81       	ldd	r24, Y+1	; 0x01
     660:	f8 01       	movw	r30, r16
     662:	80 83       	st	Z, r24
	
	pin_status = DIO_readpin(Button_port , Button_pin , &pvalue); /** READ THE BUTTON PIN VALUE */
	
	if (!pin_status) 
	{
		button_state = Button_pressed ; /** RETURN THE STATUS AS BUTTON IS PRESSED **/
     664:	81 e0       	ldi	r24, 0x01	; 1
     666:	04 c0       	rjmp	.+8      	; 0x670 <Is_pressed+0x32>
	}
	
	else
	{
		button_state = Button_Notpressed ; /** RETURN THE STATUS AS BUTTON IS PRESSED **/
		*value = pvalue ;
     668:	89 81       	ldd	r24, Y+1	; 0x01
     66a:	f8 01       	movw	r30, r16
     66c:	80 83       	st	Z, r24
		*value = pvalue ;
	}
	
	else
	{
		button_state = Button_Notpressed ; /** RETURN THE STATUS AS BUTTON IS PRESSED **/
     66e:	80 e0       	ldi	r24, 0x00	; 0
		*value = pvalue ;
	}
	
	return button_state ; /** RETURN THE STATUS OF THE BUTTON **/
}
     670:	0f 90       	pop	r0
     672:	df 91       	pop	r29
     674:	cf 91       	pop	r28
     676:	1f 91       	pop	r17
     678:	0f 91       	pop	r16
     67a:	08 95       	ret

0000067c <BUZZ_init>:
/** RETURN     : VOID                                 **/
/*******************************************************/
void BUZZ_init()
{
	/** SET THE DIRECTION OF BUZZER PIN AS OUTPUT **/
	DIO_setpindir(BUZZ_PORT , BUZZ_PIN , DIO_PIN_OUTPUT);
     67c:	41 e0       	ldi	r20, 0x01	; 1
     67e:	63 e0       	ldi	r22, 0x03	; 3
     680:	81 e0       	ldi	r24, 0x01	; 1
     682:	0e 94 09 06 	call	0xc12	; 0xc12 <DIO_setpindir>
     686:	08 95       	ret

00000688 <BUZZ_on>:
/** RETURN     : VOID                                 **/
/*******************************************************/
void BUZZ_on()
{
	/** SET THE BUZZER PIN AS HIGH **/
	DIO_setpinvalue(BUZZ_PORT , BUZZ_PIN , DIO_PIN_HIGH);
     688:	41 e0       	ldi	r20, 0x01	; 1
     68a:	63 e0       	ldi	r22, 0x03	; 3
     68c:	81 e0       	ldi	r24, 0x01	; 1
     68e:	0e 94 88 06 	call	0xd10	; 0xd10 <DIO_setpinvalue>
     692:	08 95       	ret

00000694 <BUZZ_off>:
/** RETURN     : VOID                                 **/
/*******************************************************/
void BUZZ_off()
{
	/** SET THE BUZZER PIN AS LOW **/
	DIO_setpinvalue(BUZZ_PORT , BUZZ_PIN , DIO_PIN_LOW);
     694:	40 e0       	ldi	r20, 0x00	; 0
     696:	63 e0       	ldi	r22, 0x03	; 3
     698:	81 e0       	ldi	r24, 0x01	; 1
     69a:	0e 94 88 06 	call	0xd10	; 0xd10 <DIO_setpinvalue>
     69e:	08 95       	ret

000006a0 <KEYPAD_init>:
/** @return KEYPAD_initFail                                                */
/***************************************************************************/
KEYPAD_initError KEYPAD_init(void)
{
    /*Rows direction initialization*/
    DIO_setpindir(ROW_PORT_DATA, R1 , DIO_PIN_OUTPUT);
     6a0:	41 e0       	ldi	r20, 0x01	; 1
     6a2:	62 e0       	ldi	r22, 0x02	; 2
     6a4:	82 e0       	ldi	r24, 0x02	; 2
     6a6:	0e 94 09 06 	call	0xc12	; 0xc12 <DIO_setpindir>
	DIO_setpindir(ROW_PORT_DATA, R2 , DIO_PIN_OUTPUT);
     6aa:	41 e0       	ldi	r20, 0x01	; 1
     6ac:	63 e0       	ldi	r22, 0x03	; 3
     6ae:	82 e0       	ldi	r24, 0x02	; 2
     6b0:	0e 94 09 06 	call	0xc12	; 0xc12 <DIO_setpindir>
	DIO_setpindir(ROW_PORT_DATA, R3 , DIO_PIN_OUTPUT);
     6b4:	41 e0       	ldi	r20, 0x01	; 1
     6b6:	64 e0       	ldi	r22, 0x04	; 4
     6b8:	82 e0       	ldi	r24, 0x02	; 2
     6ba:	0e 94 09 06 	call	0xc12	; 0xc12 <DIO_setpindir>
	DIO_setpindir(DIO_PORTD, R4 , DIO_PIN_OUTPUT);
     6be:	41 e0       	ldi	r20, 0x01	; 1
     6c0:	60 e0       	ldi	r22, 0x00	; 0
     6c2:	83 e0       	ldi	r24, 0x03	; 3
     6c4:	0e 94 09 06 	call	0xc12	; 0xc12 <DIO_setpindir>
	
    /*Columns direction initialization*/
	DIO_setpindir(COLUMN_PORT_DATA , C1 , DIO_PIN_INPUT);
     6c8:	40 e0       	ldi	r20, 0x00	; 0
     6ca:	65 e0       	ldi	r22, 0x05	; 5
     6cc:	82 e0       	ldi	r24, 0x02	; 2
     6ce:	0e 94 09 06 	call	0xc12	; 0xc12 <DIO_setpindir>
	DIO_setpindir(COLUMN_PORT_DATA , C2 , DIO_PIN_INPUT);
     6d2:	40 e0       	ldi	r20, 0x00	; 0
     6d4:	66 e0       	ldi	r22, 0x06	; 6
     6d6:	82 e0       	ldi	r24, 0x02	; 2
     6d8:	0e 94 09 06 	call	0xc12	; 0xc12 <DIO_setpindir>
	DIO_setpindir(COLUMN_PORT_DATA , C3 , DIO_PIN_INPUT);
     6dc:	40 e0       	ldi	r20, 0x00	; 0
     6de:	67 e0       	ldi	r22, 0x07	; 7
     6e0:	82 e0       	ldi	r24, 0x02	; 2
     6e2:	0e 94 09 06 	call	0xc12	; 0xc12 <DIO_setpindir>
	DIO_setpinvalue(DIO_PORTD , R4 ,  DIO_PIN_LOW);
	

    #elif CONNECTION == 'U'
	
	DIO_setpinvalue(ROW_PORT_DATA , R1 , DIO_PIN_HIGH);
     6e6:	41 e0       	ldi	r20, 0x01	; 1
     6e8:	62 e0       	ldi	r22, 0x02	; 2
     6ea:	82 e0       	ldi	r24, 0x02	; 2
     6ec:	0e 94 88 06 	call	0xd10	; 0xd10 <DIO_setpinvalue>
	DIO_setpinvalue(ROW_PORT_DATA , R2 , DIO_PIN_HIGH);
     6f0:	41 e0       	ldi	r20, 0x01	; 1
     6f2:	63 e0       	ldi	r22, 0x03	; 3
     6f4:	82 e0       	ldi	r24, 0x02	; 2
     6f6:	0e 94 88 06 	call	0xd10	; 0xd10 <DIO_setpinvalue>
	DIO_setpinvalue(ROW_PORT_DATA , R3 , DIO_PIN_HIGH);
     6fa:	41 e0       	ldi	r20, 0x01	; 1
     6fc:	64 e0       	ldi	r22, 0x04	; 4
     6fe:	82 e0       	ldi	r24, 0x02	; 2
     700:	0e 94 88 06 	call	0xd10	; 0xd10 <DIO_setpinvalue>
	DIO_setpinvalue(DIO_PORTD , R4 , DIO_PIN_HIGH);
     704:	41 e0       	ldi	r20, 0x01	; 1
     706:	60 e0       	ldi	r22, 0x00	; 0
     708:	83 e0       	ldi	r24, 0x03	; 3
     70a:	0e 94 88 06 	call	0xd10	; 0xd10 <DIO_setpinvalue>
	
	DIO_setpinvalue(COLUMN_PORT_DATA , C1 , DIO_PIN_HIGH);
     70e:	41 e0       	ldi	r20, 0x01	; 1
     710:	65 e0       	ldi	r22, 0x05	; 5
     712:	82 e0       	ldi	r24, 0x02	; 2
     714:	0e 94 88 06 	call	0xd10	; 0xd10 <DIO_setpinvalue>
	DIO_setpinvalue(COLUMN_PORT_DATA , C2 , DIO_PIN_HIGH);
     718:	41 e0       	ldi	r20, 0x01	; 1
     71a:	66 e0       	ldi	r22, 0x06	; 6
     71c:	82 e0       	ldi	r24, 0x02	; 2
     71e:	0e 94 88 06 	call	0xd10	; 0xd10 <DIO_setpinvalue>
	DIO_setpinvalue(COLUMN_PORT_DATA , C3 , DIO_PIN_HIGH);
     722:	41 e0       	ldi	r20, 0x01	; 1
     724:	67 e0       	ldi	r22, 0x07	; 7
     726:	82 e0       	ldi	r24, 0x02	; 2
     728:	0e 94 88 06 	call	0xd10	; 0xd10 <DIO_setpinvalue>
	
    #endif
    return KEYPAD_initSuccess;
}
     72c:	80 e0       	ldi	r24, 0x00	; 0
     72e:	08 95       	ret

00000730 <KEYPAD_read>:
/** @param *u8_a_value refrence to store the read value in                 */
/** @return KEYPAD_readSuccess                                             */
/** @return KEYPAD_readFail                                                */
/***************************************************************************/
KEYPAD_readError KEYPAD_read(uint8_t *u8_a_value)
{
     730:	ef 92       	push	r14
     732:	ff 92       	push	r15
     734:	0f 93       	push	r16
     736:	1f 93       	push	r17
     738:	cf 93       	push	r28
     73a:	df 93       	push	r29
     73c:	cd b7       	in	r28, 0x3d	; 61
     73e:	de b7       	in	r29, 0x3e	; 62
     740:	27 97       	sbiw	r28, 0x07	; 7
     742:	0f b6       	in	r0, 0x3f	; 63
     744:	f8 94       	cli
     746:	de bf       	out	0x3e, r29	; 62
     748:	0f be       	out	0x3f, r0	; 63
     74a:	cd bf       	out	0x3d, r28	; 61
     74c:	7c 01       	movw	r14, r24
    #elif CONNECTION == 'D'
    #define u8_l_readCheck DIO_PIN_HIGH
    #define u8_l_pinValue  DIO_PIN_HIGH
    #endif

    uint8_t u8_l_Rows[ROWS_SIZE] = {R1, R2, R3};
     74e:	19 82       	std	Y+1, r1	; 0x01
     750:	1a 82       	std	Y+2, r1	; 0x02
     752:	1b 82       	std	Y+3, r1	; 0x03
     754:	1c 82       	std	Y+4, r1	; 0x04
     756:	82 e0       	ldi	r24, 0x02	; 2
     758:	89 83       	std	Y+1, r24	; 0x01
     75a:	83 e0       	ldi	r24, 0x03	; 3
     75c:	8a 83       	std	Y+2, r24	; 0x02
     75e:	84 e0       	ldi	r24, 0x04	; 4
     760:	8b 83       	std	Y+3, r24	; 0x03
    uint8_t u8_l_Columns[COLUMNS_SIZE] = {C1, C2, C3};
     762:	85 e0       	ldi	r24, 0x05	; 5
     764:	8d 83       	std	Y+5, r24	; 0x05
     766:	86 e0       	ldi	r24, 0x06	; 6
     768:	8e 83       	std	Y+6, r24	; 0x06
     76a:	87 e0       	ldi	r24, 0x07	; 7
     76c:	8f 83       	std	Y+7, r24	; 0x07

    for (u8_a_rowiterator = 0; u8_a_rowiterator < ROWS_SIZE; u8_a_rowiterator++)
     76e:	00 e0       	ldi	r16, 0x00	; 0
     770:	90 c0       	rjmp	.+288    	; 0x892 <__stack+0x33>
    {
		if (u8_a_rowiterator == 3 )
     772:	03 30       	cpi	r16, 0x03	; 3
     774:	39 f4       	brne	.+14     	; 0x784 <KEYPAD_read+0x54>
		{
			DIO_setpinvalue(DIO_PORTD , DIO_PIN0, u8_l_pinValue);
     776:	40 e0       	ldi	r20, 0x00	; 0
     778:	60 e0       	ldi	r22, 0x00	; 0
     77a:	83 e0       	ldi	r24, 0x03	; 3
     77c:	0e 94 88 06 	call	0xd10	; 0xd10 <DIO_setpinvalue>
/** @param *u8_a_value refrence to store the read value in                 */
/** @return KEYPAD_readSuccess                                             */
/** @return KEYPAD_readFail                                                */
/***************************************************************************/
KEYPAD_readError KEYPAD_read(uint8_t *u8_a_value)
{
     780:	10 e0       	ldi	r17, 0x00	; 0
     782:	72 c0       	rjmp	.+228    	; 0x868 <__stack+0x9>
		{
			DIO_setpinvalue(DIO_PORTD , DIO_PIN0, u8_l_pinValue);
		}
		else
		{
			DIO_setpinvalue(ROW_PORT_DATA , u8_l_Rows[u8_a_rowiterator] , u8_l_pinValue);
     784:	e1 e0       	ldi	r30, 0x01	; 1
     786:	f0 e0       	ldi	r31, 0x00	; 0
     788:	ec 0f       	add	r30, r28
     78a:	fd 1f       	adc	r31, r29
     78c:	e0 0f       	add	r30, r16
     78e:	f1 1d       	adc	r31, r1
     790:	40 e0       	ldi	r20, 0x00	; 0
     792:	60 81       	ld	r22, Z
     794:	82 e0       	ldi	r24, 0x02	; 2
     796:	0e 94 88 06 	call	0xd10	; 0xd10 <DIO_setpinvalue>
     79a:	f2 cf       	rjmp	.-28     	; 0x780 <KEYPAD_read+0x50>
		}

        for (u8_a_coulumniterator = 0; u8_a_coulumniterator < COLUMNS_SIZE; u8_a_coulumniterator++)
        {
            DIO_readpin(COLUMN_PORT_DATA , u8_l_Columns[u8_a_coulumniterator] , u8_a_value);
     79c:	e5 e0       	ldi	r30, 0x05	; 5
     79e:	f0 e0       	ldi	r31, 0x00	; 0
     7a0:	ec 0f       	add	r30, r28
     7a2:	fd 1f       	adc	r31, r29
     7a4:	e1 0f       	add	r30, r17
     7a6:	f1 1d       	adc	r31, r1
     7a8:	a7 01       	movw	r20, r14
     7aa:	60 81       	ld	r22, Z
     7ac:	82 e0       	ldi	r24, 0x02	; 2
     7ae:	0e 94 07 07 	call	0xe0e	; 0xe0e <DIO_readpin>
            if (*u8_a_value == u8_l_readCheck)
     7b2:	f7 01       	movw	r30, r14
     7b4:	80 81       	ld	r24, Z
     7b6:	81 11       	cpse	r24, r1
     7b8:	56 c0       	rjmp	.+172    	; 0x866 <__stack+0x7>
            {
                if (u8_a_rowiterator == 0)
     7ba:	01 11       	cpse	r16, r1
     7bc:	11 c0       	rjmp	.+34     	; 0x7e0 <KEYPAD_read+0xb0>
                {
                    if (u8_a_coulumniterator == 0)
     7be:	11 11       	cpse	r17, r1
     7c0:	03 c0       	rjmp	.+6      	; 0x7c8 <KEYPAD_read+0x98>
                    {
                        *u8_a_value = '1' ;
     7c2:	81 e3       	ldi	r24, 0x31	; 49
     7c4:	80 83       	st	Z, r24
     7c6:	3b c0       	rjmp	.+118    	; 0x83e <__DATA_REGION_LENGTH__+0x3e>
                    }
                    else if (u8_a_coulumniterator == 1)
     7c8:	11 30       	cpi	r17, 0x01	; 1
     7ca:	21 f4       	brne	.+8      	; 0x7d4 <KEYPAD_read+0xa4>
                    {
                        *u8_a_value = '2' ;
     7cc:	82 e3       	ldi	r24, 0x32	; 50
     7ce:	f7 01       	movw	r30, r14
     7d0:	80 83       	st	Z, r24
     7d2:	35 c0       	rjmp	.+106    	; 0x83e <__DATA_REGION_LENGTH__+0x3e>
                    }
                    else if (u8_a_coulumniterator == 2)
     7d4:	12 30       	cpi	r17, 0x02	; 2
     7d6:	99 f5       	brne	.+102    	; 0x83e <__DATA_REGION_LENGTH__+0x3e>
                    {
                        *u8_a_value = '3' ;
     7d8:	83 e3       	ldi	r24, 0x33	; 51
     7da:	f7 01       	movw	r30, r14
     7dc:	80 83       	st	Z, r24
     7de:	2f c0       	rjmp	.+94     	; 0x83e <__DATA_REGION_LENGTH__+0x3e>
                    }
                }

                else if (u8_a_rowiterator == 1)
     7e0:	01 30       	cpi	r16, 0x01	; 1
     7e2:	91 f4       	brne	.+36     	; 0x808 <__DATA_REGION_LENGTH__+0x8>
                {
                    if (u8_a_coulumniterator == 0)
     7e4:	11 11       	cpse	r17, r1
     7e6:	04 c0       	rjmp	.+8      	; 0x7f0 <KEYPAD_read+0xc0>
                    {
                        *u8_a_value = '4' ;
     7e8:	84 e3       	ldi	r24, 0x34	; 52
     7ea:	f7 01       	movw	r30, r14
     7ec:	80 83       	st	Z, r24
     7ee:	27 c0       	rjmp	.+78     	; 0x83e <__DATA_REGION_LENGTH__+0x3e>
                    }
                    else if (u8_a_coulumniterator == 1)
     7f0:	11 30       	cpi	r17, 0x01	; 1
     7f2:	21 f4       	brne	.+8      	; 0x7fc <KEYPAD_read+0xcc>
                    {
                        *u8_a_value = '5' ;
     7f4:	85 e3       	ldi	r24, 0x35	; 53
     7f6:	f7 01       	movw	r30, r14
     7f8:	80 83       	st	Z, r24
     7fa:	21 c0       	rjmp	.+66     	; 0x83e <__DATA_REGION_LENGTH__+0x3e>
                    }
                    else if (u8_a_coulumniterator == 2)
     7fc:	12 30       	cpi	r17, 0x02	; 2
     7fe:	f9 f4       	brne	.+62     	; 0x83e <__DATA_REGION_LENGTH__+0x3e>
                    {
                        *u8_a_value = '6' ;
     800:	86 e3       	ldi	r24, 0x36	; 54
     802:	f7 01       	movw	r30, r14
     804:	80 83       	st	Z, r24
     806:	1b c0       	rjmp	.+54     	; 0x83e <__DATA_REGION_LENGTH__+0x3e>
                    }
                }

                else if (u8_a_rowiterator == 2)
     808:	02 30       	cpi	r16, 0x02	; 2
     80a:	91 f4       	brne	.+36     	; 0x830 <__DATA_REGION_LENGTH__+0x30>
                {
                    if (u8_a_coulumniterator == 0)
     80c:	11 11       	cpse	r17, r1
     80e:	04 c0       	rjmp	.+8      	; 0x818 <__DATA_REGION_LENGTH__+0x18>
                    {
                        *u8_a_value = '7' ;
     810:	87 e3       	ldi	r24, 0x37	; 55
     812:	f7 01       	movw	r30, r14
     814:	80 83       	st	Z, r24
     816:	13 c0       	rjmp	.+38     	; 0x83e <__DATA_REGION_LENGTH__+0x3e>
                    }
                    else if (u8_a_coulumniterator == 1)
     818:	11 30       	cpi	r17, 0x01	; 1
     81a:	21 f4       	brne	.+8      	; 0x824 <__DATA_REGION_LENGTH__+0x24>
                    {
                        *u8_a_value = '8' ;
     81c:	88 e3       	ldi	r24, 0x38	; 56
     81e:	f7 01       	movw	r30, r14
     820:	80 83       	st	Z, r24
     822:	0d c0       	rjmp	.+26     	; 0x83e <__DATA_REGION_LENGTH__+0x3e>
                    }
                    else if (u8_a_coulumniterator == 2)
     824:	12 30       	cpi	r17, 0x02	; 2
     826:	59 f4       	brne	.+22     	; 0x83e <__DATA_REGION_LENGTH__+0x3e>
                    {
                        *u8_a_value = '9' ;
     828:	89 e3       	ldi	r24, 0x39	; 57
     82a:	f7 01       	movw	r30, r14
     82c:	80 83       	st	Z, r24
     82e:	07 c0       	rjmp	.+14     	; 0x83e <__DATA_REGION_LENGTH__+0x3e>
                    }
                }
				
				else if (u8_a_rowiterator == 3)
     830:	03 30       	cpi	r16, 0x03	; 3
     832:	29 f4       	brne	.+10     	; 0x83e <__DATA_REGION_LENGTH__+0x3e>
				{
					if (u8_a_coulumniterator == 0)
     834:	11 11       	cpse	r17, r1
     836:	03 c0       	rjmp	.+6      	; 0x83e <__DATA_REGION_LENGTH__+0x3e>
					{
						*u8_a_value = '0' ;
     838:	80 e3       	ldi	r24, 0x30	; 48
     83a:	f7 01       	movw	r30, r14
     83c:	80 83       	st	Z, r24
					}
				}
				if (u8_a_rowiterator == 3)
     83e:	03 30       	cpi	r16, 0x03	; 3
     840:	31 f4       	brne	.+12     	; 0x84e <__DATA_REGION_LENGTH__+0x4e>
				{
					DIO_togglepin( DIO_PORTD , DIO_PIN0);
     842:	60 e0       	ldi	r22, 0x00	; 0
     844:	83 e0       	ldi	r24, 0x03	; 3
     846:	0e 94 45 07 	call	0xe8a	; 0xe8a <DIO_togglepin>
					return KEYPAD_readSuccess;
     84a:	80 e0       	ldi	r24, 0x00	; 0
     84c:	26 c0       	rjmp	.+76     	; 0x89a <__stack+0x3b>
				}
				else
				{
					
					DIO_togglepin( ROW_PORT_DATA , u8_l_Rows[u8_a_rowiterator] );
     84e:	e1 e0       	ldi	r30, 0x01	; 1
     850:	f0 e0       	ldi	r31, 0x00	; 0
     852:	ec 0f       	add	r30, r28
     854:	fd 1f       	adc	r31, r29
     856:	e0 0f       	add	r30, r16
     858:	f1 1d       	adc	r31, r1
     85a:	60 81       	ld	r22, Z
     85c:	82 e0       	ldi	r24, 0x02	; 2
     85e:	0e 94 45 07 	call	0xe8a	; 0xe8a <DIO_togglepin>
					return KEYPAD_readSuccess;
     862:	80 e0       	ldi	r24, 0x00	; 0
     864:	1a c0       	rjmp	.+52     	; 0x89a <__stack+0x3b>
		else
		{
			DIO_setpinvalue(ROW_PORT_DATA , u8_l_Rows[u8_a_rowiterator] , u8_l_pinValue);
		}

        for (u8_a_coulumniterator = 0; u8_a_coulumniterator < COLUMNS_SIZE; u8_a_coulumniterator++)
     866:	1f 5f       	subi	r17, 0xFF	; 255
     868:	13 30       	cpi	r17, 0x03	; 3
     86a:	08 f4       	brcc	.+2      	; 0x86e <__stack+0xf>
     86c:	97 cf       	rjmp	.-210    	; 0x79c <KEYPAD_read+0x6c>
					DIO_togglepin( ROW_PORT_DATA , u8_l_Rows[u8_a_rowiterator] );
					return KEYPAD_readSuccess;
				}
            }
        }
		if (u8_a_rowiterator == 3)
     86e:	03 30       	cpi	r16, 0x03	; 3
     870:	29 f4       	brne	.+10     	; 0x87c <__stack+0x1d>
		{
			DIO_togglepin( DIO_PORTD , DIO_PIN0);
     872:	60 e0       	ldi	r22, 0x00	; 0
     874:	83 e0       	ldi	r24, 0x03	; 3
     876:	0e 94 45 07 	call	0xe8a	; 0xe8a <DIO_togglepin>
     87a:	0a c0       	rjmp	.+20     	; 0x890 <__stack+0x31>
		}
		else
		{
			DIO_togglepin( ROW_PORT_DATA , u8_l_Rows[u8_a_rowiterator] );
     87c:	e1 e0       	ldi	r30, 0x01	; 1
     87e:	f0 e0       	ldi	r31, 0x00	; 0
     880:	ec 0f       	add	r30, r28
     882:	fd 1f       	adc	r31, r29
     884:	e0 0f       	add	r30, r16
     886:	f1 1d       	adc	r31, r1
     888:	60 81       	ld	r22, Z
     88a:	82 e0       	ldi	r24, 0x02	; 2
     88c:	0e 94 45 07 	call	0xe8a	; 0xe8a <DIO_togglepin>
    #endif

    uint8_t u8_l_Rows[ROWS_SIZE] = {R1, R2, R3};
    uint8_t u8_l_Columns[COLUMNS_SIZE] = {C1, C2, C3};

    for (u8_a_rowiterator = 0; u8_a_rowiterator < ROWS_SIZE; u8_a_rowiterator++)
     890:	0f 5f       	subi	r16, 0xFF	; 255
     892:	04 30       	cpi	r16, 0x04	; 4
     894:	08 f4       	brcc	.+2      	; 0x898 <__stack+0x39>
     896:	6d cf       	rjmp	.-294    	; 0x772 <KEYPAD_read+0x42>
		else
		{
			DIO_togglepin( ROW_PORT_DATA , u8_l_Rows[u8_a_rowiterator] );
		}
    }
    return KEYPAD_readFail;
     898:	81 e0       	ldi	r24, 0x01	; 1
     89a:	27 96       	adiw	r28, 0x07	; 7
     89c:	0f b6       	in	r0, 0x3f	; 63
     89e:	f8 94       	cli
     8a0:	de bf       	out	0x3e, r29	; 62
     8a2:	0f be       	out	0x3f, r0	; 63
     8a4:	cd bf       	out	0x3d, r28	; 61
     8a6:	df 91       	pop	r29
     8a8:	cf 91       	pop	r28
     8aa:	1f 91       	pop	r17
     8ac:	0f 91       	pop	r16
     8ae:	ff 90       	pop	r15
     8b0:	ef 90       	pop	r14
     8b2:	08 95       	ret

000008b4 <LCD_sendcmd>:
/** FUNCTION TO SEND COMMAND TO LCD                       */
/** ARGUMENTS   : COMMAND                                 */
/** RETURNS     : ERROR STATUS                            */
/**********************************************************/
LCD_status LCD_sendcmd(uint8_t u8_a_cmd)
{
     8b4:	cf 93       	push	r28
     8b6:	c8 2f       	mov	r28, r24
	TMR0_init();
     8b8:	0e 94 bb 07 	call	0xf76	; 0xf76 <TMR0_init>
		DIO_setpinvalue(LCD_8BIT_CMD_PORT , LCD_E_PIN , DIO_PIN_LOW);  /** LATCH **/
		TMR0_delayms(5); /** LOW **/
		
		#elif LCD_MODE == BIT_MODE_4    /** IF LCD CONFIGURED AS 4 BIT MODE **/
		
		DIO_setpinvalue(LCD_4BIT_CMD_PORT , LCD_RS_PIN , DIO_PIN_LOW);  /** COMMAND MODE       **/
     8bc:	40 e0       	ldi	r20, 0x00	; 0
     8be:	61 e0       	ldi	r22, 0x01	; 1
     8c0:	80 e0       	ldi	r24, 0x00	; 0
     8c2:	0e 94 88 06 	call	0xd10	; 0xd10 <DIO_setpinvalue>
		DIO_setpinvalue(LCD_4BIT_CMD_PORT , LCD_RW_PIN , DIO_PIN_LOW);  /** WRITE TO LCD MODE  **/
     8c6:	40 e0       	ldi	r20, 0x00	; 0
     8c8:	62 e0       	ldi	r22, 0x02	; 2
     8ca:	80 e0       	ldi	r24, 0x00	; 0
     8cc:	0e 94 88 06 	call	0xd10	; 0xd10 <DIO_setpinvalue>
		DIO_setpinvalue(LCD_4BIT_CMD_PORT , LCD_E_PIN , DIO_PIN_LOW);   /** PREPARE FOR LATCH  **/
     8d0:	40 e0       	ldi	r20, 0x00	; 0
     8d2:	63 e0       	ldi	r22, 0x03	; 3
     8d4:	80 e0       	ldi	r24, 0x00	; 0
     8d6:	0e 94 88 06 	call	0xd10	; 0xd10 <DIO_setpinvalue>
		
		PORTA = ((u8_a_cmd & 0xF0) | (PORTA & 0x0F)); /** SEND THE MSB(HIGH NIBBLE) **/
     8da:	8b b3       	in	r24, 0x1b	; 27
     8dc:	9c 2f       	mov	r25, r28
     8de:	90 7f       	andi	r25, 0xF0	; 240
     8e0:	8f 70       	andi	r24, 0x0F	; 15
     8e2:	89 2b       	or	r24, r25
     8e4:	8b bb       	out	0x1b, r24	; 27
		
		DIO_setpinvalue(LCD_4BIT_CMD_PORT , LCD_E_PIN , DIO_PIN_HIGH); /** LATCH **/
     8e6:	41 e0       	ldi	r20, 0x01	; 1
     8e8:	63 e0       	ldi	r22, 0x03	; 3
     8ea:	80 e0       	ldi	r24, 0x00	; 0
     8ec:	0e 94 88 06 	call	0xd10	; 0xd10 <DIO_setpinvalue>
		TMR0_delayms(1);
     8f0:	61 e0       	ldi	r22, 0x01	; 1
     8f2:	70 e0       	ldi	r23, 0x00	; 0
     8f4:	80 e0       	ldi	r24, 0x00	; 0
     8f6:	90 e0       	ldi	r25, 0x00	; 0
     8f8:	0e 94 e2 07 	call	0xfc4	; 0xfc4 <TMR0_delayms>
		DIO_setpinvalue(LCD_4BIT_CMD_PORT , LCD_E_PIN , DIO_PIN_LOW);  /** LATCH **/
     8fc:	40 e0       	ldi	r20, 0x00	; 0
     8fe:	63 e0       	ldi	r22, 0x03	; 3
     900:	80 e0       	ldi	r24, 0x00	; 0
     902:	0e 94 88 06 	call	0xd10	; 0xd10 <DIO_setpinvalue>
		
		
		PORTA = (((u8_a_cmd << 4) & 0xF0) | (PORTA & 0x0F)); /** SEND THE LSB(LOW NIBBLE) **/
     906:	20 e1       	ldi	r18, 0x10	; 16
     908:	c2 9f       	mul	r28, r18
     90a:	c0 01       	movw	r24, r0
     90c:	11 24       	eor	r1, r1
     90e:	9b b3       	in	r25, 0x1b	; 27
     910:	9f 70       	andi	r25, 0x0F	; 15
     912:	89 2b       	or	r24, r25
     914:	8b bb       	out	0x1b, r24	; 27
		
		DIO_setpinvalue(LCD_4BIT_CMD_PORT , LCD_E_PIN , DIO_PIN_HIGH); /** LATCH **/
     916:	41 e0       	ldi	r20, 0x01	; 1
     918:	63 e0       	ldi	r22, 0x03	; 3
     91a:	80 e0       	ldi	r24, 0x00	; 0
     91c:	0e 94 88 06 	call	0xd10	; 0xd10 <DIO_setpinvalue>
		TMR0_delayms(1);
     920:	61 e0       	ldi	r22, 0x01	; 1
     922:	70 e0       	ldi	r23, 0x00	; 0
     924:	80 e0       	ldi	r24, 0x00	; 0
     926:	90 e0       	ldi	r25, 0x00	; 0
     928:	0e 94 e2 07 	call	0xfc4	; 0xfc4 <TMR0_delayms>
		
		DIO_setpinvalue(LCD_4BIT_CMD_PORT , LCD_E_PIN , DIO_PIN_LOW);    /** LATCH **/
     92c:	40 e0       	ldi	r20, 0x00	; 0
     92e:	63 e0       	ldi	r22, 0x03	; 3
     930:	80 e0       	ldi	r24, 0x00	; 0
     932:	0e 94 88 06 	call	0xd10	; 0xd10 <DIO_setpinvalue>
		
		TMR0_delayms(5); /** 5 ms BEFORE SENDING THE NEXT COMMAND **/
     936:	65 e0       	ldi	r22, 0x05	; 5
     938:	70 e0       	ldi	r23, 0x00	; 0
     93a:	80 e0       	ldi	r24, 0x00	; 0
     93c:	90 e0       	ldi	r25, 0x00	; 0
     93e:	0e 94 e2 07 	call	0xfc4	; 0xfc4 <TMR0_delayms>
		
		#endif
}
     942:	cf 91       	pop	r28
     944:	08 95       	ret

00000946 <LCD_init>:
/**********************************************************/
LCD_status LCD_init(void)
{
	LCD_status en_a_lcdinitstatus = VALID__LCD_INIT ; /** VARIABLE TO OLD THE RETURN STATUS OF THE FUNCTION **/
	
	TMR0_init();
     946:	0e 94 bb 07 	call	0xf76	; 0xf76 <TMR0_init>
		LCD_sendcmd(LCD_CLEAR);       /** CLEAR THE LCD                                    **/
		
		
		#elif LCD_MODE == BIT_MODE_4    /** IF LCD CONFIGURED AS 4 BIT MODE **/
		
		DIO_setpindir(LCD_4BIT_CMD_PORT , LCD_RS_PIN , DIO_PIN_OUTPUT); /** SET RS PIN AS OUTPUT PIN **/
     94a:	41 e0       	ldi	r20, 0x01	; 1
     94c:	61 e0       	ldi	r22, 0x01	; 1
     94e:	80 e0       	ldi	r24, 0x00	; 0
     950:	0e 94 09 06 	call	0xc12	; 0xc12 <DIO_setpindir>
		DIO_setpindir(LCD_4BIT_CMD_PORT , LCD_RW_PIN , DIO_PIN_OUTPUT); /** SET RW PIN AS OUTPUT PIN **/
     954:	41 e0       	ldi	r20, 0x01	; 1
     956:	62 e0       	ldi	r22, 0x02	; 2
     958:	80 e0       	ldi	r24, 0x00	; 0
     95a:	0e 94 09 06 	call	0xc12	; 0xc12 <DIO_setpindir>
		DIO_setpindir(LCD_4BIT_CMD_PORT , LCD_E_PIN , DIO_PIN_OUTPUT);  /** SET E PIN AS OUTPUT PIN  **/
     95e:	41 e0       	ldi	r20, 0x01	; 1
     960:	63 e0       	ldi	r22, 0x03	; 3
     962:	80 e0       	ldi	r24, 0x00	; 0
     964:	0e 94 09 06 	call	0xc12	; 0xc12 <DIO_setpindir>
		
		DIO_setpindir(LCD_4BIT_DATA_PORT , LCD_D4_PIN , DIO_PIN_OUTPUT); /** 4 DATA PINS AS OUTPUT **/
     968:	41 e0       	ldi	r20, 0x01	; 1
     96a:	64 e0       	ldi	r22, 0x04	; 4
     96c:	80 e0       	ldi	r24, 0x00	; 0
     96e:	0e 94 09 06 	call	0xc12	; 0xc12 <DIO_setpindir>
		DIO_setpindir(LCD_4BIT_DATA_PORT , LCD_D5_PIN , DIO_PIN_OUTPUT);
     972:	41 e0       	ldi	r20, 0x01	; 1
     974:	65 e0       	ldi	r22, 0x05	; 5
     976:	80 e0       	ldi	r24, 0x00	; 0
     978:	0e 94 09 06 	call	0xc12	; 0xc12 <DIO_setpindir>
		DIO_setpindir(LCD_4BIT_DATA_PORT , LCD_D6_PIN , DIO_PIN_OUTPUT);
     97c:	41 e0       	ldi	r20, 0x01	; 1
     97e:	66 e0       	ldi	r22, 0x06	; 6
     980:	80 e0       	ldi	r24, 0x00	; 0
     982:	0e 94 09 06 	call	0xc12	; 0xc12 <DIO_setpindir>
		DIO_setpindir(LCD_4BIT_DATA_PORT , LCD_D7_PIN , DIO_PIN_OUTPUT);
     986:	41 e0       	ldi	r20, 0x01	; 1
     988:	67 e0       	ldi	r22, 0x07	; 7
     98a:	80 e0       	ldi	r24, 0x00	; 0
     98c:	0e 94 09 06 	call	0xc12	; 0xc12 <DIO_setpindir>
		
		TMR0_delayms(20); /** DELAY FOR LCD TO BE INITIALIZED **/
     990:	64 e1       	ldi	r22, 0x14	; 20
     992:	70 e0       	ldi	r23, 0x00	; 0
     994:	80 e0       	ldi	r24, 0x00	; 0
     996:	90 e0       	ldi	r25, 0x00	; 0
     998:	0e 94 e2 07 	call	0xfc4	; 0xfc4 <TMR0_delayms>
		
		/** SEND SOME COMMANDS TO THE LCD FOR INITIAL SET   **/
		
		LCD_sendcmd(LCD_4BIT_MODE_CMD1); /** SEND THREE COMMANDS FOR LCD TO SET 4 BIT OPERATION MODE ( 2 LINES , 5*8 MATRIX ) **/
     99c:	83 e3       	ldi	r24, 0x33	; 51
     99e:	0e 94 5a 04 	call	0x8b4	; 0x8b4 <LCD_sendcmd>
		LCD_sendcmd(LCD_4BIT_MODE_CMD2);
     9a2:	82 e3       	ldi	r24, 0x32	; 50
     9a4:	0e 94 5a 04 	call	0x8b4	; 0x8b4 <LCD_sendcmd>
		LCD_sendcmd(LCD_4BIT_MODE_CMD3);
     9a8:	88 e2       	ldi	r24, 0x28	; 40
     9aa:	0e 94 5a 04 	call	0x8b4	; 0x8b4 <LCD_sendcmd>
		
		LCD_sendcmd(LCD_CURSOR_OFF);     /** NO NEED FOR CURSOR SO IT IS OFF                  **/
     9ae:	8c e0       	ldi	r24, 0x0C	; 12
     9b0:	0e 94 5a 04 	call	0x8b4	; 0x8b4 <LCD_sendcmd>
		LCD_sendcmd(LCD_CURSOR_INC);     /** DIRECTION OF WRITING FROM LEFT TO RIGHT          **/
     9b4:	86 e0       	ldi	r24, 0x06	; 6
     9b6:	0e 94 5a 04 	call	0x8b4	; 0x8b4 <LCD_sendcmd>
		LCD_sendcmd(LCD_RETURN_HOME);    /** CURSOR STARTS FROM ITS HOME POSITION             **/
     9ba:	82 e0       	ldi	r24, 0x02	; 2
     9bc:	0e 94 5a 04 	call	0x8b4	; 0x8b4 <LCD_sendcmd>
		LCD_sendcmd(LCD_CLEAR);          /** CLEAR THE LCD                                    **/
     9c0:	81 e0       	ldi	r24, 0x01	; 1
     9c2:	0e 94 5a 04 	call	0x8b4	; 0x8b4 <LCD_sendcmd>
		
		#endif 
		
}
     9c6:	08 95       	ret

000009c8 <LCD_writechar>:
/** FUNCTION TO DISPLAY CHARACTER ON LCD                  */
/** ARGUMENTS   : CHARACTER                               */
/** RETURNS     : ERROR STATUS                            */
/**********************************************************/
LCD_status LCD_writechar(uint8_t u8_a_chr)
{
     9c8:	cf 93       	push	r28
     9ca:	c8 2f       	mov	r28, r24
	
	TMR0_delayms(5); /** 5 ms BEFORE SENDING THE NEXT CHARACTER **/
	
	#elif LCD_MODE == BIT_MODE_4    /** IF LCD CONFIGURED AS 4 BIT MODE **/
	
	DIO_setpinvalue(LCD_4BIT_CMD_PORT , LCD_RS_PIN , DIO_PIN_HIGH);  /** DATA MODE         **/
     9cc:	41 e0       	ldi	r20, 0x01	; 1
     9ce:	61 e0       	ldi	r22, 0x01	; 1
     9d0:	80 e0       	ldi	r24, 0x00	; 0
     9d2:	0e 94 88 06 	call	0xd10	; 0xd10 <DIO_setpinvalue>
	DIO_setpinvalue(LCD_4BIT_CMD_PORT , LCD_RW_PIN , DIO_PIN_LOW);   /** WRITE TO LCD MODE **/
     9d6:	40 e0       	ldi	r20, 0x00	; 0
     9d8:	62 e0       	ldi	r22, 0x02	; 2
     9da:	80 e0       	ldi	r24, 0x00	; 0
     9dc:	0e 94 88 06 	call	0xd10	; 0xd10 <DIO_setpinvalue>
	DIO_setpinvalue(LCD_4BIT_CMD_PORT , LCD_E_PIN , DIO_PIN_LOW);    /** DATA MODE         **/
     9e0:	40 e0       	ldi	r20, 0x00	; 0
     9e2:	63 e0       	ldi	r22, 0x03	; 3
     9e4:	80 e0       	ldi	r24, 0x00	; 0
     9e6:	0e 94 88 06 	call	0xd10	; 0xd10 <DIO_setpinvalue>
	
	
	PORTA = ((u8_a_chr & 0xF0) | (PORTA & 0x0F)); /** SEND THE MSB (HIGH NIBBLE) **/
     9ea:	8b b3       	in	r24, 0x1b	; 27
     9ec:	9c 2f       	mov	r25, r28
     9ee:	90 7f       	andi	r25, 0xF0	; 240
     9f0:	8f 70       	andi	r24, 0x0F	; 15
     9f2:	89 2b       	or	r24, r25
     9f4:	8b bb       	out	0x1b, r24	; 27
	
	DIO_setpinvalue(LCD_4BIT_CMD_PORT , LCD_E_PIN , DIO_PIN_HIGH); /** LATCH **/
     9f6:	41 e0       	ldi	r20, 0x01	; 1
     9f8:	63 e0       	ldi	r22, 0x03	; 3
     9fa:	80 e0       	ldi	r24, 0x00	; 0
     9fc:	0e 94 88 06 	call	0xd10	; 0xd10 <DIO_setpinvalue>
	TMR0_delayms(1);
     a00:	61 e0       	ldi	r22, 0x01	; 1
     a02:	70 e0       	ldi	r23, 0x00	; 0
     a04:	80 e0       	ldi	r24, 0x00	; 0
     a06:	90 e0       	ldi	r25, 0x00	; 0
     a08:	0e 94 e2 07 	call	0xfc4	; 0xfc4 <TMR0_delayms>
	DIO_setpinvalue(LCD_4BIT_CMD_PORT , LCD_E_PIN , DIO_PIN_LOW); /** LATCH **/
     a0c:	40 e0       	ldi	r20, 0x00	; 0
     a0e:	63 e0       	ldi	r22, 0x03	; 3
     a10:	80 e0       	ldi	r24, 0x00	; 0
     a12:	0e 94 88 06 	call	0xd10	; 0xd10 <DIO_setpinvalue>
		
	PORTA = (((u8_a_chr << 4) & 0xF0) | (PORTA & 0x0F)); /** SEND THE LSB (LOW NIBBLE) **/
     a16:	20 e1       	ldi	r18, 0x10	; 16
     a18:	c2 9f       	mul	r28, r18
     a1a:	c0 01       	movw	r24, r0
     a1c:	11 24       	eor	r1, r1
     a1e:	9b b3       	in	r25, 0x1b	; 27
     a20:	9f 70       	andi	r25, 0x0F	; 15
     a22:	89 2b       	or	r24, r25
     a24:	8b bb       	out	0x1b, r24	; 27
	
	DIO_setpinvalue(LCD_4BIT_CMD_PORT , LCD_E_PIN , DIO_PIN_HIGH); /** LATCH **/
     a26:	41 e0       	ldi	r20, 0x01	; 1
     a28:	63 e0       	ldi	r22, 0x03	; 3
     a2a:	80 e0       	ldi	r24, 0x00	; 0
     a2c:	0e 94 88 06 	call	0xd10	; 0xd10 <DIO_setpinvalue>
	TMR0_delayms(1);
     a30:	61 e0       	ldi	r22, 0x01	; 1
     a32:	70 e0       	ldi	r23, 0x00	; 0
     a34:	80 e0       	ldi	r24, 0x00	; 0
     a36:	90 e0       	ldi	r25, 0x00	; 0
     a38:	0e 94 e2 07 	call	0xfc4	; 0xfc4 <TMR0_delayms>
	DIO_setpinvalue(LCD_4BIT_CMD_PORT , LCD_E_PIN , DIO_PIN_LOW);  /** LATCH **/
     a3c:	40 e0       	ldi	r20, 0x00	; 0
     a3e:	63 e0       	ldi	r22, 0x03	; 3
     a40:	80 e0       	ldi	r24, 0x00	; 0
     a42:	0e 94 88 06 	call	0xd10	; 0xd10 <DIO_setpinvalue>
	
	TMR0_delayms(5); /** 5 ms BEFORE SENDING THE NEXT CHARACTER **/
     a46:	65 e0       	ldi	r22, 0x05	; 5
     a48:	70 e0       	ldi	r23, 0x00	; 0
     a4a:	80 e0       	ldi	r24, 0x00	; 0
     a4c:	90 e0       	ldi	r25, 0x00	; 0
     a4e:	0e 94 e2 07 	call	0xfc4	; 0xfc4 <TMR0_delayms>
	
	#endif
}
     a52:	cf 91       	pop	r28
     a54:	08 95       	ret

00000a56 <LCD_writestr>:
/** FUNCTION TO DISPLAY STRING ON LCD                     */
/** ARGUMENTS   : STRING                                  */
/** RETURNS     : ERROR STATUS                            */
/**********************************************************/
LCD_status LCD_writestr(uint8_t* u8_s_str)
{
     a56:	0f 93       	push	r16
     a58:	1f 93       	push	r17
     a5a:	cf 93       	push	r28
     a5c:	8c 01       	movw	r16, r24
	uint8_t u8_a_letter = 0;   /** VARIABLE SIMULATES LETTER **/
     a5e:	c0 e0       	ldi	r28, 0x00	; 0
	
	while (u8_s_str[u8_a_letter] != '\0') /** WHILE LETTER ISN'T NULL **/
     a60:	03 c0       	rjmp	.+6      	; 0xa68 <LCD_writestr+0x12>
	{
		LCD_writechar(u8_s_str[u8_a_letter]); /** SEND LETTER TO LCD **/
     a62:	0e 94 e4 04 	call	0x9c8	; 0x9c8 <LCD_writechar>
		
		u8_a_letter++; /** JUMP TO THE NEXT LETTER **/
     a66:	cf 5f       	subi	r28, 0xFF	; 255
/**********************************************************/
LCD_status LCD_writestr(uint8_t* u8_s_str)
{
	uint8_t u8_a_letter = 0;   /** VARIABLE SIMULATES LETTER **/
	
	while (u8_s_str[u8_a_letter] != '\0') /** WHILE LETTER ISN'T NULL **/
     a68:	f8 01       	movw	r30, r16
     a6a:	ec 0f       	add	r30, r28
     a6c:	f1 1d       	adc	r31, r1
     a6e:	80 81       	ld	r24, Z
     a70:	81 11       	cpse	r24, r1
     a72:	f7 cf       	rjmp	.-18     	; 0xa62 <LCD_writestr+0xc>
	{
		LCD_writechar(u8_s_str[u8_a_letter]); /** SEND LETTER TO LCD **/
		
		u8_a_letter++; /** JUMP TO THE NEXT LETTER **/
	}
}
     a74:	cf 91       	pop	r28
     a76:	1f 91       	pop	r17
     a78:	0f 91       	pop	r16
     a7a:	08 95       	ret

00000a7c <LCD_goto>:
/** FUNCTION TO JUMP TO SPECIFIC POSITION ON LCD          */
/** ARGUMENTS   : ROW , COLUMN (POSITION)                 */
/** RETURNS     : ERROR STATUS                            */
/**********************************************************/
LCD_status  LCD_goto(uint8_t u8_a_row , uint8_t u8_a_column)
{
     a7c:	cf 93       	push	r28
     a7e:	df 93       	push	r29
     a80:	00 d0       	rcall	.+0      	; 0xa82 <LCD_goto+0x6>
     a82:	cd b7       	in	r28, 0x3d	; 61
     a84:	de b7       	in	r29, 0x3e	; 62
	uint8_t positions[2] = {0x80 , 0xC0}; /** POSITIONS OF 1st & 2nd ROWS **/
     a86:	90 e8       	ldi	r25, 0x80	; 128
     a88:	99 83       	std	Y+1, r25	; 0x01
     a8a:	90 ec       	ldi	r25, 0xC0	; 192
     a8c:	9a 83       	std	Y+2, r25	; 0x02
	
	LCD_sendcmd(positions[u8_a_row] + u8_a_column); /** GO TO SPECIFIC MATRIX **/
     a8e:	e1 e0       	ldi	r30, 0x01	; 1
     a90:	f0 e0       	ldi	r31, 0x00	; 0
     a92:	ec 0f       	add	r30, r28
     a94:	fd 1f       	adc	r31, r29
     a96:	e8 0f       	add	r30, r24
     a98:	f1 1d       	adc	r31, r1
     a9a:	80 81       	ld	r24, Z
     a9c:	86 0f       	add	r24, r22
     a9e:	0e 94 5a 04 	call	0x8b4	; 0x8b4 <LCD_sendcmd>
}
     aa2:	0f 90       	pop	r0
     aa4:	0f 90       	pop	r0
     aa6:	df 91       	pop	r29
     aa8:	cf 91       	pop	r28
     aaa:	08 95       	ret

00000aac <LCD_writecustomchar>:
/** FUNCTION TO WRITE CUSOMIZED CHARACTER ON THE LCD      */
/** ARGUMENTS   : PATTERN , OCATION IN CGRAM              */
/** RETURNS     : ERROR STATUS                            */
/**********************************************************/
LCD_status LCD_writecustomchar(uint8_t * u8_a_pattern , uint8_t u8_a_location)
{
     aac:	0f 93       	push	r16
     aae:	1f 93       	push	r17
     ab0:	cf 93       	push	r28
     ab2:	8c 01       	movw	r16, r24
	uint8_t u8_a_patterncounter = 0 ; /** ITERATOR ON THE ROWS OF CHARACTER PATTERN **/
	
	LCD_sendcmd( 0x40 + (u8_a_location * 8) ); /** SEND COMMAND TO LCD TO WRITE TO ITS RAM **/
     ab4:	86 2f       	mov	r24, r22
     ab6:	90 e0       	ldi	r25, 0x00	; 0
     ab8:	08 96       	adiw	r24, 0x08	; 8
     aba:	88 0f       	add	r24, r24
     abc:	88 0f       	add	r24, r24
     abe:	88 0f       	add	r24, r24
     ac0:	0e 94 5a 04 	call	0x8b4	; 0x8b4 <LCD_sendcmd>
	
	for(u8_a_patterncounter = 0 ; u8_a_patterncounter < 8 ; u8_a_patterncounter++)
     ac4:	c0 e0       	ldi	r28, 0x00	; 0
     ac6:	07 c0       	rjmp	.+14     	; 0xad6 <LCD_writecustomchar+0x2a>
	{
		LCD_writechar(u8_a_pattern[u8_a_patterncounter]); /** STORE 8 BYTES (PATTERN) **/
     ac8:	f8 01       	movw	r30, r16
     aca:	ec 0f       	add	r30, r28
     acc:	f1 1d       	adc	r31, r1
     ace:	80 81       	ld	r24, Z
     ad0:	0e 94 e4 04 	call	0x9c8	; 0x9c8 <LCD_writechar>
{
	uint8_t u8_a_patterncounter = 0 ; /** ITERATOR ON THE ROWS OF CHARACTER PATTERN **/
	
	LCD_sendcmd( 0x40 + (u8_a_location * 8) ); /** SEND COMMAND TO LCD TO WRITE TO ITS RAM **/
	
	for(u8_a_patterncounter = 0 ; u8_a_patterncounter < 8 ; u8_a_patterncounter++)
     ad4:	cf 5f       	subi	r28, 0xFF	; 255
     ad6:	c8 30       	cpi	r28, 0x08	; 8
     ad8:	b8 f3       	brcs	.-18     	; 0xac8 <LCD_writecustomchar+0x1c>
	{
		LCD_writechar(u8_a_pattern[u8_a_patterncounter]); /** STORE 8 BYTES (PATTERN) **/
	}
}
     ada:	cf 91       	pop	r28
     adc:	1f 91       	pop	r17
     ade:	0f 91       	pop	r16
     ae0:	08 95       	ret

00000ae2 <LCD_writeint>:
/** FUNCTION TO WRITE INT ON THE LCD                      */
/** ARGUMENTS   : ROW , COLUMN (POSITION)                 */
/** RETURNS     : ERROR STATUS                            */
/**********************************************************/
LCD_status LCD_writeint(sint32_t s32_a_num)
{
     ae2:	1f 93       	push	r17
     ae4:	cf 93       	push	r28
     ae6:	df 93       	push	r29
     ae8:	cd b7       	in	r28, 0x3d	; 61
     aea:	de b7       	in	r29, 0x3e	; 62
     aec:	2a 97       	sbiw	r28, 0x0a	; 10
     aee:	0f b6       	in	r0, 0x3f	; 63
     af0:	f8 94       	cli
     af2:	de bf       	out	0x3e, r29	; 62
     af4:	0f be       	out	0x3f, r0	; 63
     af6:	cd bf       	out	0x3d, r28	; 61
	uint8_t i = 0 , k ;
	
	uint8_t number[10];
	
	/* In case of negative numbers */
	if(s32_a_num < 0)
     af8:	99 23       	and	r25, r25
     afa:	dc f5       	brge	.+118    	; 0xb72 <LCD_writeint+0x90>
	{
		s32_a_num *= -1;
     afc:	90 95       	com	r25
     afe:	80 95       	com	r24
     b00:	70 95       	com	r23
     b02:	61 95       	neg	r22
     b04:	7f 4f       	sbci	r23, 0xFF	; 255
     b06:	8f 4f       	sbci	r24, 0xFF	; 255
     b08:	9f 4f       	sbci	r25, 0xFF	; 255
/** ARGUMENTS   : ROW , COLUMN (POSITION)                 */
/** RETURNS     : ERROR STATUS                            */
/**********************************************************/
LCD_status LCD_writeint(sint32_t s32_a_num)
{
	uint8_t i = 0 , k ;
     b0a:	10 e0       	ldi	r17, 0x00	; 0
	/* In case of negative numbers */
	if(s32_a_num < 0)
	{
		s32_a_num *= -1;
		
		while(s32_a_num > 0)
     b0c:	13 c0       	rjmp	.+38     	; 0xb34 <LCD_writeint+0x52>
		{
			number[i] = (s32_a_num % 10) + 48;  //Equivalent ASCII of number
     b0e:	2a e0       	ldi	r18, 0x0A	; 10
     b10:	30 e0       	ldi	r19, 0x00	; 0
     b12:	40 e0       	ldi	r20, 0x00	; 0
     b14:	50 e0       	ldi	r21, 0x00	; 0
     b16:	0e 94 ea 09 	call	0x13d4	; 0x13d4 <__divmodsi4>
     b1a:	e1 e0       	ldi	r30, 0x01	; 1
     b1c:	f0 e0       	ldi	r31, 0x00	; 0
     b1e:	ec 0f       	add	r30, r28
     b20:	fd 1f       	adc	r31, r29
     b22:	e1 0f       	add	r30, r17
     b24:	f1 1d       	adc	r31, r1
     b26:	60 5d       	subi	r22, 0xD0	; 208
     b28:	60 83       	st	Z, r22
			s32_a_num /= 10;
     b2a:	62 2f       	mov	r22, r18
     b2c:	73 2f       	mov	r23, r19
     b2e:	84 2f       	mov	r24, r20
     b30:	95 2f       	mov	r25, r21
			i++;
     b32:	1f 5f       	subi	r17, 0xFF	; 255
	/* In case of negative numbers */
	if(s32_a_num < 0)
	{
		s32_a_num *= -1;
		
		while(s32_a_num > 0)
     b34:	16 16       	cp	r1, r22
     b36:	17 06       	cpc	r1, r23
     b38:	18 06       	cpc	r1, r24
     b3a:	19 06       	cpc	r1, r25
     b3c:	44 f3       	brlt	.-48     	; 0xb0e <LCD_writeint+0x2c>
		{
			number[i] = (s32_a_num % 10) + 48;  //Equivalent ASCII of number
			s32_a_num /= 10;
			i++;
		}
		number[i] = '-'; // storing the negative sign
     b3e:	e1 e0       	ldi	r30, 0x01	; 1
     b40:	f0 e0       	ldi	r31, 0x00	; 0
     b42:	ec 0f       	add	r30, r28
     b44:	fd 1f       	adc	r31, r29
     b46:	e1 0f       	add	r30, r17
     b48:	f1 1d       	adc	r31, r1
     b4a:	8d e2       	ldi	r24, 0x2D	; 45
     b4c:	80 83       	st	Z, r24
		
		for(k = i+1 ; k > 0 ; k--)
     b4e:	1f 5f       	subi	r17, 0xFF	; 255
     b50:	0d c0       	rjmp	.+26     	; 0xb6c <LCD_writeint+0x8a>
		{
			LCD_writechar(number[k - 1]); //Display each number
     b52:	e1 2f       	mov	r30, r17
     b54:	f0 e0       	ldi	r31, 0x00	; 0
     b56:	31 97       	sbiw	r30, 0x01	; 1
     b58:	81 e0       	ldi	r24, 0x01	; 1
     b5a:	90 e0       	ldi	r25, 0x00	; 0
     b5c:	8c 0f       	add	r24, r28
     b5e:	9d 1f       	adc	r25, r29
     b60:	e8 0f       	add	r30, r24
     b62:	f9 1f       	adc	r31, r25
     b64:	80 81       	ld	r24, Z
     b66:	0e 94 e4 04 	call	0x9c8	; 0x9c8 <LCD_writechar>
			s32_a_num /= 10;
			i++;
		}
		number[i] = '-'; // storing the negative sign
		
		for(k = i+1 ; k > 0 ; k--)
     b6a:	11 50       	subi	r17, 0x01	; 1
     b6c:	11 11       	cpse	r17, r1
     b6e:	f1 cf       	rjmp	.-30     	; 0xb52 <LCD_writeint+0x70>
     b70:	39 c0       	rjmp	.+114    	; 0xbe4 <LCD_writeint+0x102>
		{
			LCD_writechar(number[k - 1]); //Display each number
		}
	}
	/* Zero case */
	else if(s32_a_num == 0)
     b72:	61 15       	cp	r22, r1
     b74:	71 05       	cpc	r23, r1
     b76:	81 05       	cpc	r24, r1
     b78:	91 05       	cpc	r25, r1
     b7a:	21 f4       	brne	.+8      	; 0xb84 <LCD_writeint+0xa2>
	{
		LCD_writechar('0');
     b7c:	80 e3       	ldi	r24, 0x30	; 48
     b7e:	0e 94 e4 04 	call	0x9c8	; 0x9c8 <LCD_writechar>
     b82:	30 c0       	rjmp	.+96     	; 0xbe4 <LCD_writeint+0x102>
	}
	
	/* In case of positive numbers */
	else if(s32_a_num > 0)
     b84:	16 16       	cp	r1, r22
     b86:	17 06       	cpc	r1, r23
     b88:	18 06       	cpc	r1, r24
     b8a:	19 06       	cpc	r1, r25
     b8c:	ac f0       	brlt	.+42     	; 0xbb8 <LCD_writeint+0xd6>
     b8e:	2a c0       	rjmp	.+84     	; 0xbe4 <LCD_writeint+0x102>
	{
		while(s32_a_num > 0)
		{
			number[i] = (s32_a_num % 10) + 48; //Equivalent ASCII of number
     b90:	2a e0       	ldi	r18, 0x0A	; 10
     b92:	30 e0       	ldi	r19, 0x00	; 0
     b94:	40 e0       	ldi	r20, 0x00	; 0
     b96:	50 e0       	ldi	r21, 0x00	; 0
     b98:	0e 94 ea 09 	call	0x13d4	; 0x13d4 <__divmodsi4>
     b9c:	e1 e0       	ldi	r30, 0x01	; 1
     b9e:	f0 e0       	ldi	r31, 0x00	; 0
     ba0:	ec 0f       	add	r30, r28
     ba2:	fd 1f       	adc	r31, r29
     ba4:	e1 0f       	add	r30, r17
     ba6:	f1 1d       	adc	r31, r1
     ba8:	60 5d       	subi	r22, 0xD0	; 208
     baa:	60 83       	st	Z, r22
			s32_a_num /= 10;
     bac:	62 2f       	mov	r22, r18
     bae:	73 2f       	mov	r23, r19
     bb0:	84 2f       	mov	r24, r20
     bb2:	95 2f       	mov	r25, r21
			i++;
     bb4:	1f 5f       	subi	r17, 0xFF	; 255
     bb6:	01 c0       	rjmp	.+2      	; 0xbba <LCD_writeint+0xd8>
     bb8:	10 e0       	ldi	r17, 0x00	; 0
	}
	
	/* In case of positive numbers */
	else if(s32_a_num > 0)
	{
		while(s32_a_num > 0)
     bba:	16 16       	cp	r1, r22
     bbc:	17 06       	cpc	r1, r23
     bbe:	18 06       	cpc	r1, r24
     bc0:	19 06       	cpc	r1, r25
     bc2:	34 f3       	brlt	.-52     	; 0xb90 <LCD_writeint+0xae>
     bc4:	0d c0       	rjmp	.+26     	; 0xbe0 <LCD_writeint+0xfe>
			i++;
		}
		
		for(k = i ; k > 0 ; k--)
		{
			LCD_writechar(number[k-1]); //Display each number
     bc6:	e1 2f       	mov	r30, r17
     bc8:	f0 e0       	ldi	r31, 0x00	; 0
     bca:	31 97       	sbiw	r30, 0x01	; 1
     bcc:	81 e0       	ldi	r24, 0x01	; 1
     bce:	90 e0       	ldi	r25, 0x00	; 0
     bd0:	8c 0f       	add	r24, r28
     bd2:	9d 1f       	adc	r25, r29
     bd4:	e8 0f       	add	r30, r24
     bd6:	f9 1f       	adc	r31, r25
     bd8:	80 81       	ld	r24, Z
     bda:	0e 94 e4 04 	call	0x9c8	; 0x9c8 <LCD_writechar>
			number[i] = (s32_a_num % 10) + 48; //Equivalent ASCII of number
			s32_a_num /= 10;
			i++;
		}
		
		for(k = i ; k > 0 ; k--)
     bde:	11 50       	subi	r17, 0x01	; 1
     be0:	11 11       	cpse	r17, r1
     be2:	f1 cf       	rjmp	.-30     	; 0xbc6 <LCD_writeint+0xe4>
		{
			LCD_writechar(number[k-1]); //Display each number
		}
	}
     be4:	2a 96       	adiw	r28, 0x0a	; 10
     be6:	0f b6       	in	r0, 0x3f	; 63
     be8:	f8 94       	cli
     bea:	de bf       	out	0x3e, r29	; 62
     bec:	0f be       	out	0x3f, r0	; 63
     bee:	cd bf       	out	0x3d, r28	; 61
     bf0:	df 91       	pop	r29
     bf2:	cf 91       	pop	r28
     bf4:	1f 91       	pop	r17
     bf6:	08 95       	ret

00000bf8 <main>:

#include "APP/APP.h"

int main(void)
{
	APP_init(); /** INITIALIZATION **/
     bf8:	0e 94 49 00 	call	0x92	; 0x92 <APP_init>
	
	APP_readuserpin(); /** READ USER PIN **/
     bfc:	0e 94 9d 00 	call	0x13a	; 0x13a <APP_readuserpin>
	
	APP_startcardcomm();  /** START **/ 
     c00:	0e 94 ed 00 	call	0x1da	; 0x1da <APP_startcardcomm>
		
	APP_getamount(); /** GET NEEDED MONEY **/
     c04:	0e 94 71 01 	call	0x2e2	; 0x2e2 <APP_getamount>
	
	APP_cardvalidate(); /** VALIDATE THE CARD **/
     c08:	0e 94 e8 01 	call	0x3d0	; 0x3d0 <APP_cardvalidate>
// 	while (1)
// 	{
// 		
// 	
// 	}
}
     c0c:	80 e0       	ldi	r24, 0x00	; 0
     c0e:	90 e0       	ldi	r25, 0x00	; 0
     c10:	08 95       	ret

00000c12 <DIO_setpindir>:
/******************************************************************/
PinDirection_t DIO_setpindir(uint8_t u8_a_portid , uint8_t u8_a_pinid , uint8_t u8_a_pindir)
{
	PinDirection_t en_a_dirstate = VALID_DIRECTION ; /** VARIABLE TO RETURN THE STATUS OF DIRECTION **/
	
	switch(u8_a_pindir) /** SWITCH CASE ON THE DIRECTION VALUE **/
     c12:	44 23       	and	r20, r20
     c14:	19 f0       	breq	.+6      	; 0xc1c <DIO_setpindir+0xa>
     c16:	41 30       	cpi	r20, 0x01	; 1
     c18:	e9 f1       	breq	.+122    	; 0xc94 <DIO_setpindir+0x82>
     c1a:	74 c0       	rjmp	.+232    	; 0xd04 <DIO_setpindir+0xf2>
	{
		case DIO_PIN_INPUT:  /* INPUT CASE  */
		
		switch(u8_a_portid) /** SWITCH CASE ON THE PORT ID */
     c1c:	81 30       	cpi	r24, 0x01	; 1
     c1e:	99 f0       	breq	.+38     	; 0xc46 <DIO_setpindir+0x34>
     c20:	28 f0       	brcs	.+10     	; 0xc2c <DIO_setpindir+0x1a>
     c22:	82 30       	cpi	r24, 0x02	; 2
     c24:	e9 f0       	breq	.+58     	; 0xc60 <DIO_setpindir+0x4e>
     c26:	83 30       	cpi	r24, 0x03	; 3
     c28:	41 f1       	breq	.+80     	; 0xc7a <DIO_setpindir+0x68>
     c2a:	6e c0       	rjmp	.+220    	; 0xd08 <DIO_setpindir+0xf6>
		{
			case DIO_PORTA:
			clear_bit(DDRA , u8_a_pinid);           /** CONFIGURE THIS PIN IN PORTA AS INPUT PIN **/
     c2c:	2a b3       	in	r18, 0x1a	; 26
     c2e:	81 e0       	ldi	r24, 0x01	; 1
     c30:	90 e0       	ldi	r25, 0x00	; 0
     c32:	02 c0       	rjmp	.+4      	; 0xc38 <DIO_setpindir+0x26>
     c34:	88 0f       	add	r24, r24
     c36:	99 1f       	adc	r25, r25
     c38:	6a 95       	dec	r22
     c3a:	e2 f7       	brpl	.-8      	; 0xc34 <DIO_setpindir+0x22>
     c3c:	80 95       	com	r24
     c3e:	82 23       	and	r24, r18
     c40:	8a bb       	out	0x1a, r24	; 26
/* INPUT   : PORT , PINID , DIRECTION                             */
/* RETURNS : PinDirection_t                                       */
/******************************************************************/
PinDirection_t DIO_setpindir(uint8_t u8_a_portid , uint8_t u8_a_pinid , uint8_t u8_a_pindir)
{
	PinDirection_t en_a_dirstate = VALID_DIRECTION ; /** VARIABLE TO RETURN THE STATUS OF DIRECTION **/
     c42:	80 e0       	ldi	r24, 0x00	; 0
		
		switch(u8_a_portid) /** SWITCH CASE ON THE PORT ID */
		{
			case DIO_PORTA:
			clear_bit(DDRA , u8_a_pinid);           /** CONFIGURE THIS PIN IN PORTA AS INPUT PIN **/
			break;
     c44:	08 95       	ret
			
			case DIO_PORTB:
			clear_bit(DDRB , u8_a_pinid);           /** CONFIGURE THIS PIN IN PORTB AS INPUT PIN **/
     c46:	27 b3       	in	r18, 0x17	; 23
     c48:	81 e0       	ldi	r24, 0x01	; 1
     c4a:	90 e0       	ldi	r25, 0x00	; 0
     c4c:	02 c0       	rjmp	.+4      	; 0xc52 <DIO_setpindir+0x40>
     c4e:	88 0f       	add	r24, r24
     c50:	99 1f       	adc	r25, r25
     c52:	6a 95       	dec	r22
     c54:	e2 f7       	brpl	.-8      	; 0xc4e <DIO_setpindir+0x3c>
     c56:	80 95       	com	r24
     c58:	82 23       	and	r24, r18
     c5a:	87 bb       	out	0x17, r24	; 23
/* INPUT   : PORT , PINID , DIRECTION                             */
/* RETURNS : PinDirection_t                                       */
/******************************************************************/
PinDirection_t DIO_setpindir(uint8_t u8_a_portid , uint8_t u8_a_pinid , uint8_t u8_a_pindir)
{
	PinDirection_t en_a_dirstate = VALID_DIRECTION ; /** VARIABLE TO RETURN THE STATUS OF DIRECTION **/
     c5c:	80 e0       	ldi	r24, 0x00	; 0
			clear_bit(DDRA , u8_a_pinid);           /** CONFIGURE THIS PIN IN PORTA AS INPUT PIN **/
			break;
			
			case DIO_PORTB:
			clear_bit(DDRB , u8_a_pinid);           /** CONFIGURE THIS PIN IN PORTB AS INPUT PIN **/
			break;
     c5e:	08 95       	ret
			
			case DIO_PORTC:
			clear_bit(DDRC , u8_a_pinid);           /** CONFIGURE THIS PIN IN PORTC AS INPUT PIN **/
     c60:	24 b3       	in	r18, 0x14	; 20
     c62:	81 e0       	ldi	r24, 0x01	; 1
     c64:	90 e0       	ldi	r25, 0x00	; 0
     c66:	02 c0       	rjmp	.+4      	; 0xc6c <DIO_setpindir+0x5a>
     c68:	88 0f       	add	r24, r24
     c6a:	99 1f       	adc	r25, r25
     c6c:	6a 95       	dec	r22
     c6e:	e2 f7       	brpl	.-8      	; 0xc68 <DIO_setpindir+0x56>
     c70:	80 95       	com	r24
     c72:	82 23       	and	r24, r18
     c74:	84 bb       	out	0x14, r24	; 20
/* INPUT   : PORT , PINID , DIRECTION                             */
/* RETURNS : PinDirection_t                                       */
/******************************************************************/
PinDirection_t DIO_setpindir(uint8_t u8_a_portid , uint8_t u8_a_pinid , uint8_t u8_a_pindir)
{
	PinDirection_t en_a_dirstate = VALID_DIRECTION ; /** VARIABLE TO RETURN THE STATUS OF DIRECTION **/
     c76:	80 e0       	ldi	r24, 0x00	; 0
			clear_bit(DDRB , u8_a_pinid);           /** CONFIGURE THIS PIN IN PORTB AS INPUT PIN **/
			break;
			
			case DIO_PORTC:
			clear_bit(DDRC , u8_a_pinid);           /** CONFIGURE THIS PIN IN PORTC AS INPUT PIN **/
			break;
     c78:	08 95       	ret
			
			case DIO_PORTD:
			clear_bit(DDRD , u8_a_pinid);           /** CONFIGURE THIS PIN IN PORTD AS INPUT PIN **/
     c7a:	21 b3       	in	r18, 0x11	; 17
     c7c:	81 e0       	ldi	r24, 0x01	; 1
     c7e:	90 e0       	ldi	r25, 0x00	; 0
     c80:	02 c0       	rjmp	.+4      	; 0xc86 <DIO_setpindir+0x74>
     c82:	88 0f       	add	r24, r24
     c84:	99 1f       	adc	r25, r25
     c86:	6a 95       	dec	r22
     c88:	e2 f7       	brpl	.-8      	; 0xc82 <DIO_setpindir+0x70>
     c8a:	80 95       	com	r24
     c8c:	82 23       	and	r24, r18
     c8e:	81 bb       	out	0x11, r24	; 17
/* INPUT   : PORT , PINID , DIRECTION                             */
/* RETURNS : PinDirection_t                                       */
/******************************************************************/
PinDirection_t DIO_setpindir(uint8_t u8_a_portid , uint8_t u8_a_pinid , uint8_t u8_a_pindir)
{
	PinDirection_t en_a_dirstate = VALID_DIRECTION ; /** VARIABLE TO RETURN THE STATUS OF DIRECTION **/
     c90:	80 e0       	ldi	r24, 0x00	; 0
			clear_bit(DDRC , u8_a_pinid);           /** CONFIGURE THIS PIN IN PORTC AS INPUT PIN **/
			break;
			
			case DIO_PORTD:
			clear_bit(DDRD , u8_a_pinid);           /** CONFIGURE THIS PIN IN PORTD AS INPUT PIN **/
			break;
     c92:	08 95       	ret
		} 
		break;
		
		case DIO_PIN_OUTPUT:  /* OUTPUT CASE  */
		
		switch(u8_a_portid) /** SWITCH CASE ON THE PORT ID */
     c94:	81 30       	cpi	r24, 0x01	; 1
     c96:	91 f0       	breq	.+36     	; 0xcbc <DIO_setpindir+0xaa>
     c98:	28 f0       	brcs	.+10     	; 0xca4 <DIO_setpindir+0x92>
     c9a:	82 30       	cpi	r24, 0x02	; 2
     c9c:	d9 f0       	breq	.+54     	; 0xcd4 <DIO_setpindir+0xc2>
     c9e:	83 30       	cpi	r24, 0x03	; 3
     ca0:	29 f1       	breq	.+74     	; 0xcec <DIO_setpindir+0xda>
     ca2:	34 c0       	rjmp	.+104    	; 0xd0c <DIO_setpindir+0xfa>
		{
			case DIO_PORTA:
			set_bit(DDRA , u8_a_pinid);             /** CONFIGURE THIS PIN IN PORTA AS OUTPUT PIN **/
     ca4:	2a b3       	in	r18, 0x1a	; 26
     ca6:	81 e0       	ldi	r24, 0x01	; 1
     ca8:	90 e0       	ldi	r25, 0x00	; 0
     caa:	02 c0       	rjmp	.+4      	; 0xcb0 <DIO_setpindir+0x9e>
     cac:	88 0f       	add	r24, r24
     cae:	99 1f       	adc	r25, r25
     cb0:	6a 95       	dec	r22
     cb2:	e2 f7       	brpl	.-8      	; 0xcac <DIO_setpindir+0x9a>
     cb4:	82 2b       	or	r24, r18
     cb6:	8a bb       	out	0x1a, r24	; 26
/* INPUT   : PORT , PINID , DIRECTION                             */
/* RETURNS : PinDirection_t                                       */
/******************************************************************/
PinDirection_t DIO_setpindir(uint8_t u8_a_portid , uint8_t u8_a_pinid , uint8_t u8_a_pindir)
{
	PinDirection_t en_a_dirstate = VALID_DIRECTION ; /** VARIABLE TO RETURN THE STATUS OF DIRECTION **/
     cb8:	80 e0       	ldi	r24, 0x00	; 0
		
		switch(u8_a_portid) /** SWITCH CASE ON THE PORT ID */
		{
			case DIO_PORTA:
			set_bit(DDRA , u8_a_pinid);             /** CONFIGURE THIS PIN IN PORTA AS OUTPUT PIN **/
			break;
     cba:	08 95       	ret
			
			case DIO_PORTB:
			set_bit(DDRB , u8_a_pinid);             /** CONFIGURE THIS PIN IN PORTA AS OUTPUT PIN **/
     cbc:	27 b3       	in	r18, 0x17	; 23
     cbe:	81 e0       	ldi	r24, 0x01	; 1
     cc0:	90 e0       	ldi	r25, 0x00	; 0
     cc2:	02 c0       	rjmp	.+4      	; 0xcc8 <DIO_setpindir+0xb6>
     cc4:	88 0f       	add	r24, r24
     cc6:	99 1f       	adc	r25, r25
     cc8:	6a 95       	dec	r22
     cca:	e2 f7       	brpl	.-8      	; 0xcc4 <DIO_setpindir+0xb2>
     ccc:	82 2b       	or	r24, r18
     cce:	87 bb       	out	0x17, r24	; 23
/* INPUT   : PORT , PINID , DIRECTION                             */
/* RETURNS : PinDirection_t                                       */
/******************************************************************/
PinDirection_t DIO_setpindir(uint8_t u8_a_portid , uint8_t u8_a_pinid , uint8_t u8_a_pindir)
{
	PinDirection_t en_a_dirstate = VALID_DIRECTION ; /** VARIABLE TO RETURN THE STATUS OF DIRECTION **/
     cd0:	80 e0       	ldi	r24, 0x00	; 0
			set_bit(DDRA , u8_a_pinid);             /** CONFIGURE THIS PIN IN PORTA AS OUTPUT PIN **/
			break;
			
			case DIO_PORTB:
			set_bit(DDRB , u8_a_pinid);             /** CONFIGURE THIS PIN IN PORTA AS OUTPUT PIN **/
			break;
     cd2:	08 95       	ret
			
			case DIO_PORTC:
			set_bit(DDRC , u8_a_pinid);             /** CONFIGURE THIS PIN IN PORTA AS OUTPUT PIN **/
     cd4:	24 b3       	in	r18, 0x14	; 20
     cd6:	81 e0       	ldi	r24, 0x01	; 1
     cd8:	90 e0       	ldi	r25, 0x00	; 0
     cda:	02 c0       	rjmp	.+4      	; 0xce0 <DIO_setpindir+0xce>
     cdc:	88 0f       	add	r24, r24
     cde:	99 1f       	adc	r25, r25
     ce0:	6a 95       	dec	r22
     ce2:	e2 f7       	brpl	.-8      	; 0xcdc <DIO_setpindir+0xca>
     ce4:	82 2b       	or	r24, r18
     ce6:	84 bb       	out	0x14, r24	; 20
/* INPUT   : PORT , PINID , DIRECTION                             */
/* RETURNS : PinDirection_t                                       */
/******************************************************************/
PinDirection_t DIO_setpindir(uint8_t u8_a_portid , uint8_t u8_a_pinid , uint8_t u8_a_pindir)
{
	PinDirection_t en_a_dirstate = VALID_DIRECTION ; /** VARIABLE TO RETURN THE STATUS OF DIRECTION **/
     ce8:	80 e0       	ldi	r24, 0x00	; 0
			set_bit(DDRB , u8_a_pinid);             /** CONFIGURE THIS PIN IN PORTA AS OUTPUT PIN **/
			break;
			
			case DIO_PORTC:
			set_bit(DDRC , u8_a_pinid);             /** CONFIGURE THIS PIN IN PORTA AS OUTPUT PIN **/
			break;
     cea:	08 95       	ret
			
			case DIO_PORTD:
			set_bit(DDRD , u8_a_pinid);             /** CONFIGURE THIS PIN IN PORTA AS OUTPUT PIN **/
     cec:	21 b3       	in	r18, 0x11	; 17
     cee:	81 e0       	ldi	r24, 0x01	; 1
     cf0:	90 e0       	ldi	r25, 0x00	; 0
     cf2:	02 c0       	rjmp	.+4      	; 0xcf8 <DIO_setpindir+0xe6>
     cf4:	88 0f       	add	r24, r24
     cf6:	99 1f       	adc	r25, r25
     cf8:	6a 95       	dec	r22
     cfa:	e2 f7       	brpl	.-8      	; 0xcf4 <DIO_setpindir+0xe2>
     cfc:	82 2b       	or	r24, r18
     cfe:	81 bb       	out	0x11, r24	; 17
/* INPUT   : PORT , PINID , DIRECTION                             */
/* RETURNS : PinDirection_t                                       */
/******************************************************************/
PinDirection_t DIO_setpindir(uint8_t u8_a_portid , uint8_t u8_a_pinid , uint8_t u8_a_pindir)
{
	PinDirection_t en_a_dirstate = VALID_DIRECTION ; /** VARIABLE TO RETURN THE STATUS OF DIRECTION **/
     d00:	80 e0       	ldi	r24, 0x00	; 0
			set_bit(DDRC , u8_a_pinid);             /** CONFIGURE THIS PIN IN PORTA AS OUTPUT PIN **/
			break;
			
			case DIO_PORTD:
			set_bit(DDRD , u8_a_pinid);             /** CONFIGURE THIS PIN IN PORTA AS OUTPUT PIN **/
			break;
     d02:	08 95       	ret
		} 
		break;
		 
		 
		default:  /** DIRECTION ISN'T INPUT OR OUTPUT */
		en_a_dirstate = NOT_VALID_DIRECTION ; /** RETURN AS DIR NOT VALID ERRORS **/
     d04:	81 e0       	ldi	r24, 0x01	; 1
     d06:	08 95       	ret
			case DIO_PORTD:
			clear_bit(DDRD , u8_a_pinid);           /** CONFIGURE THIS PIN IN PORTD AS INPUT PIN **/
			break;
			
			default: /** DO NOTHING **/
			en_a_dirstate = NOT_VALID_DIRECTION ; /** RETURN AS DIR NOT VALID ERRORS **/
     d08:	81 e0       	ldi	r24, 0x01	; 1
     d0a:	08 95       	ret
			case DIO_PORTD:
			set_bit(DDRD , u8_a_pinid);             /** CONFIGURE THIS PIN IN PORTA AS OUTPUT PIN **/
			break;
			
			default:  /** DO NOTHING **/
			en_a_dirstate = NOT_VALID_DIRECTION ; /** RETURN AS DIR NOT VALID ERRORS **/
     d0c:	81 e0       	ldi	r24, 0x01	; 1
		en_a_dirstate = NOT_VALID_DIRECTION ; /** RETURN AS DIR NOT VALID ERRORS **/
		break ; 
	} 
	
	return en_a_dirstate ; /** RETURN THE STATE OF FUNCTION **/
}
     d0e:	08 95       	ret

00000d10 <DIO_setpinvalue>:
PinValue_t DIO_setpinvalue(uint8_t u8_a_portid , uint8_t u8_a_pinid , uint8_t u8_a_pinval)
{
	
	PinValue_t en_a_valstate = VALID_VALUE ; /** VARIABLE TO RETURN THE STATUS OF VALUE **/ 
	
	switch(u8_a_pinval)
     d10:	44 23       	and	r20, r20
     d12:	19 f0       	breq	.+6      	; 0xd1a <DIO_setpinvalue+0xa>
     d14:	41 30       	cpi	r20, 0x01	; 1
     d16:	e9 f1       	breq	.+122    	; 0xd92 <DIO_setpinvalue+0x82>
     d18:	74 c0       	rjmp	.+232    	; 0xe02 <DIO_setpinvalue+0xf2>
	{
		case DIO_PIN_LOW:  /** IN CASE PIN VALUE IS LOW */
		
		switch(u8_a_portid)  /** SWITCH CASE ON THE PORT ID */ 
     d1a:	81 30       	cpi	r24, 0x01	; 1
     d1c:	99 f0       	breq	.+38     	; 0xd44 <DIO_setpinvalue+0x34>
     d1e:	28 f0       	brcs	.+10     	; 0xd2a <DIO_setpinvalue+0x1a>
     d20:	82 30       	cpi	r24, 0x02	; 2
     d22:	e9 f0       	breq	.+58     	; 0xd5e <DIO_setpinvalue+0x4e>
     d24:	83 30       	cpi	r24, 0x03	; 3
     d26:	41 f1       	breq	.+80     	; 0xd78 <DIO_setpinvalue+0x68>
     d28:	6e c0       	rjmp	.+220    	; 0xe06 <DIO_setpinvalue+0xf6>
		{
			case DIO_PORTA:
			clear_bit(PORTA , u8_a_pinid);       /** SET THIS PIN AS LOW **/
     d2a:	2b b3       	in	r18, 0x1b	; 27
     d2c:	81 e0       	ldi	r24, 0x01	; 1
     d2e:	90 e0       	ldi	r25, 0x00	; 0
     d30:	02 c0       	rjmp	.+4      	; 0xd36 <DIO_setpinvalue+0x26>
     d32:	88 0f       	add	r24, r24
     d34:	99 1f       	adc	r25, r25
     d36:	6a 95       	dec	r22
     d38:	e2 f7       	brpl	.-8      	; 0xd32 <DIO_setpinvalue+0x22>
     d3a:	80 95       	com	r24
     d3c:	82 23       	and	r24, r18
     d3e:	8b bb       	out	0x1b, r24	; 27
/* RETURNS : PinValue_t                                           */
/******************************************************************/
PinValue_t DIO_setpinvalue(uint8_t u8_a_portid , uint8_t u8_a_pinid , uint8_t u8_a_pinval)
{
	
	PinValue_t en_a_valstate = VALID_VALUE ; /** VARIABLE TO RETURN THE STATUS OF VALUE **/ 
     d40:	80 e0       	ldi	r24, 0x00	; 0
		
		switch(u8_a_portid)  /** SWITCH CASE ON THE PORT ID */ 
		{
			case DIO_PORTA:
			clear_bit(PORTA , u8_a_pinid);       /** SET THIS PIN AS LOW **/
			break;
     d42:	08 95       	ret
			
			case DIO_PORTB:
			clear_bit(PORTB , u8_a_pinid);       /** SET THIS PIN AS LOW **/
     d44:	28 b3       	in	r18, 0x18	; 24
     d46:	81 e0       	ldi	r24, 0x01	; 1
     d48:	90 e0       	ldi	r25, 0x00	; 0
     d4a:	02 c0       	rjmp	.+4      	; 0xd50 <DIO_setpinvalue+0x40>
     d4c:	88 0f       	add	r24, r24
     d4e:	99 1f       	adc	r25, r25
     d50:	6a 95       	dec	r22
     d52:	e2 f7       	brpl	.-8      	; 0xd4c <DIO_setpinvalue+0x3c>
     d54:	80 95       	com	r24
     d56:	82 23       	and	r24, r18
     d58:	88 bb       	out	0x18, r24	; 24
/* RETURNS : PinValue_t                                           */
/******************************************************************/
PinValue_t DIO_setpinvalue(uint8_t u8_a_portid , uint8_t u8_a_pinid , uint8_t u8_a_pinval)
{
	
	PinValue_t en_a_valstate = VALID_VALUE ; /** VARIABLE TO RETURN THE STATUS OF VALUE **/ 
     d5a:	80 e0       	ldi	r24, 0x00	; 0
			clear_bit(PORTA , u8_a_pinid);       /** SET THIS PIN AS LOW **/
			break;
			
			case DIO_PORTB:
			clear_bit(PORTB , u8_a_pinid);       /** SET THIS PIN AS LOW **/
			break;
     d5c:	08 95       	ret
			
			case DIO_PORTC:
			clear_bit(PORTC , u8_a_pinid);       /** SET THIS PIN AS LOW **/
     d5e:	25 b3       	in	r18, 0x15	; 21
     d60:	81 e0       	ldi	r24, 0x01	; 1
     d62:	90 e0       	ldi	r25, 0x00	; 0
     d64:	02 c0       	rjmp	.+4      	; 0xd6a <DIO_setpinvalue+0x5a>
     d66:	88 0f       	add	r24, r24
     d68:	99 1f       	adc	r25, r25
     d6a:	6a 95       	dec	r22
     d6c:	e2 f7       	brpl	.-8      	; 0xd66 <DIO_setpinvalue+0x56>
     d6e:	80 95       	com	r24
     d70:	82 23       	and	r24, r18
     d72:	85 bb       	out	0x15, r24	; 21
/* RETURNS : PinValue_t                                           */
/******************************************************************/
PinValue_t DIO_setpinvalue(uint8_t u8_a_portid , uint8_t u8_a_pinid , uint8_t u8_a_pinval)
{
	
	PinValue_t en_a_valstate = VALID_VALUE ; /** VARIABLE TO RETURN THE STATUS OF VALUE **/ 
     d74:	80 e0       	ldi	r24, 0x00	; 0
			clear_bit(PORTB , u8_a_pinid);       /** SET THIS PIN AS LOW **/
			break;
			
			case DIO_PORTC:
			clear_bit(PORTC , u8_a_pinid);       /** SET THIS PIN AS LOW **/
			break;
     d76:	08 95       	ret
			
			case DIO_PORTD:
			clear_bit(PORTD , u8_a_pinid);       /** SET THIS PIN AS LOW **/
     d78:	22 b3       	in	r18, 0x12	; 18
     d7a:	81 e0       	ldi	r24, 0x01	; 1
     d7c:	90 e0       	ldi	r25, 0x00	; 0
     d7e:	02 c0       	rjmp	.+4      	; 0xd84 <DIO_setpinvalue+0x74>
     d80:	88 0f       	add	r24, r24
     d82:	99 1f       	adc	r25, r25
     d84:	6a 95       	dec	r22
     d86:	e2 f7       	brpl	.-8      	; 0xd80 <DIO_setpinvalue+0x70>
     d88:	80 95       	com	r24
     d8a:	82 23       	and	r24, r18
     d8c:	82 bb       	out	0x12, r24	; 18
/* RETURNS : PinValue_t                                           */
/******************************************************************/
PinValue_t DIO_setpinvalue(uint8_t u8_a_portid , uint8_t u8_a_pinid , uint8_t u8_a_pinval)
{
	
	PinValue_t en_a_valstate = VALID_VALUE ; /** VARIABLE TO RETURN THE STATUS OF VALUE **/ 
     d8e:	80 e0       	ldi	r24, 0x00	; 0
			clear_bit(PORTC , u8_a_pinid);       /** SET THIS PIN AS LOW **/
			break;
			
			case DIO_PORTD:
			clear_bit(PORTD , u8_a_pinid);       /** SET THIS PIN AS LOW **/
			break;
     d90:	08 95       	ret
		} 
		break;
		
		case DIO_PIN_HIGH:
		
		switch(u8_a_portid)
     d92:	81 30       	cpi	r24, 0x01	; 1
     d94:	91 f0       	breq	.+36     	; 0xdba <DIO_setpinvalue+0xaa>
     d96:	28 f0       	brcs	.+10     	; 0xda2 <DIO_setpinvalue+0x92>
     d98:	82 30       	cpi	r24, 0x02	; 2
     d9a:	d9 f0       	breq	.+54     	; 0xdd2 <DIO_setpinvalue+0xc2>
     d9c:	83 30       	cpi	r24, 0x03	; 3
     d9e:	29 f1       	breq	.+74     	; 0xdea <DIO_setpinvalue+0xda>
     da0:	34 c0       	rjmp	.+104    	; 0xe0a <DIO_setpinvalue+0xfa>
		{
			case DIO_PORTA:
			set_bit(PORTA , u8_a_pinid);         /** SET THIS PIN AS HIGH  **/
     da2:	2b b3       	in	r18, 0x1b	; 27
     da4:	81 e0       	ldi	r24, 0x01	; 1
     da6:	90 e0       	ldi	r25, 0x00	; 0
     da8:	02 c0       	rjmp	.+4      	; 0xdae <DIO_setpinvalue+0x9e>
     daa:	88 0f       	add	r24, r24
     dac:	99 1f       	adc	r25, r25
     dae:	6a 95       	dec	r22
     db0:	e2 f7       	brpl	.-8      	; 0xdaa <DIO_setpinvalue+0x9a>
     db2:	82 2b       	or	r24, r18
     db4:	8b bb       	out	0x1b, r24	; 27
/* RETURNS : PinValue_t                                           */
/******************************************************************/
PinValue_t DIO_setpinvalue(uint8_t u8_a_portid , uint8_t u8_a_pinid , uint8_t u8_a_pinval)
{
	
	PinValue_t en_a_valstate = VALID_VALUE ; /** VARIABLE TO RETURN THE STATUS OF VALUE **/ 
     db6:	80 e0       	ldi	r24, 0x00	; 0
		
		switch(u8_a_portid)
		{
			case DIO_PORTA:
			set_bit(PORTA , u8_a_pinid);         /** SET THIS PIN AS HIGH  **/
			break;
     db8:	08 95       	ret
			
			case DIO_PORTB:
			set_bit(PORTB , u8_a_pinid);         /** SET THIS PIN AS HIGH  **/
     dba:	28 b3       	in	r18, 0x18	; 24
     dbc:	81 e0       	ldi	r24, 0x01	; 1
     dbe:	90 e0       	ldi	r25, 0x00	; 0
     dc0:	02 c0       	rjmp	.+4      	; 0xdc6 <DIO_setpinvalue+0xb6>
     dc2:	88 0f       	add	r24, r24
     dc4:	99 1f       	adc	r25, r25
     dc6:	6a 95       	dec	r22
     dc8:	e2 f7       	brpl	.-8      	; 0xdc2 <DIO_setpinvalue+0xb2>
     dca:	82 2b       	or	r24, r18
     dcc:	88 bb       	out	0x18, r24	; 24
/* RETURNS : PinValue_t                                           */
/******************************************************************/
PinValue_t DIO_setpinvalue(uint8_t u8_a_portid , uint8_t u8_a_pinid , uint8_t u8_a_pinval)
{
	
	PinValue_t en_a_valstate = VALID_VALUE ; /** VARIABLE TO RETURN THE STATUS OF VALUE **/ 
     dce:	80 e0       	ldi	r24, 0x00	; 0
			set_bit(PORTA , u8_a_pinid);         /** SET THIS PIN AS HIGH  **/
			break;
			
			case DIO_PORTB:
			set_bit(PORTB , u8_a_pinid);         /** SET THIS PIN AS HIGH  **/
			break;
     dd0:	08 95       	ret
			
			case DIO_PORTC:
			set_bit(PORTC , u8_a_pinid);         /** SET THIS PIN AS HIGH  **/
     dd2:	25 b3       	in	r18, 0x15	; 21
     dd4:	81 e0       	ldi	r24, 0x01	; 1
     dd6:	90 e0       	ldi	r25, 0x00	; 0
     dd8:	02 c0       	rjmp	.+4      	; 0xdde <DIO_setpinvalue+0xce>
     dda:	88 0f       	add	r24, r24
     ddc:	99 1f       	adc	r25, r25
     dde:	6a 95       	dec	r22
     de0:	e2 f7       	brpl	.-8      	; 0xdda <DIO_setpinvalue+0xca>
     de2:	82 2b       	or	r24, r18
     de4:	85 bb       	out	0x15, r24	; 21
/* RETURNS : PinValue_t                                           */
/******************************************************************/
PinValue_t DIO_setpinvalue(uint8_t u8_a_portid , uint8_t u8_a_pinid , uint8_t u8_a_pinval)
{
	
	PinValue_t en_a_valstate = VALID_VALUE ; /** VARIABLE TO RETURN THE STATUS OF VALUE **/ 
     de6:	80 e0       	ldi	r24, 0x00	; 0
			set_bit(PORTB , u8_a_pinid);         /** SET THIS PIN AS HIGH  **/
			break;
			
			case DIO_PORTC:
			set_bit(PORTC , u8_a_pinid);         /** SET THIS PIN AS HIGH  **/
			break;
     de8:	08 95       	ret
			
			case DIO_PORTD:
			set_bit(PORTD , u8_a_pinid);         /** SET THIS PIN AS HIGH  **/
     dea:	22 b3       	in	r18, 0x12	; 18
     dec:	81 e0       	ldi	r24, 0x01	; 1
     dee:	90 e0       	ldi	r25, 0x00	; 0
     df0:	02 c0       	rjmp	.+4      	; 0xdf6 <DIO_setpinvalue+0xe6>
     df2:	88 0f       	add	r24, r24
     df4:	99 1f       	adc	r25, r25
     df6:	6a 95       	dec	r22
     df8:	e2 f7       	brpl	.-8      	; 0xdf2 <DIO_setpinvalue+0xe2>
     dfa:	82 2b       	or	r24, r18
     dfc:	82 bb       	out	0x12, r24	; 18
/* RETURNS : PinValue_t                                           */
/******************************************************************/
PinValue_t DIO_setpinvalue(uint8_t u8_a_portid , uint8_t u8_a_pinid , uint8_t u8_a_pinval)
{
	
	PinValue_t en_a_valstate = VALID_VALUE ; /** VARIABLE TO RETURN THE STATUS OF VALUE **/ 
     dfe:	80 e0       	ldi	r24, 0x00	; 0
			set_bit(PORTC , u8_a_pinid);         /** SET THIS PIN AS HIGH  **/
			break;
			
			case DIO_PORTD:
			set_bit(PORTD , u8_a_pinid);         /** SET THIS PIN AS HIGH  **/
			break;
     e00:	08 95       	ret
			break;
		} 
		break;
		
		default :
		en_a_valstate = NOT_VALID_VALUE ;  /** RETURN VALUE AS NOT VALID **/
     e02:	81 e0       	ldi	r24, 0x01	; 1
     e04:	08 95       	ret
			case DIO_PORTD:
			clear_bit(PORTD , u8_a_pinid);       /** SET THIS PIN AS LOW **/
			break;
			
			default:
			en_a_valstate = NOT_VALID_VALUE ;  /** RETURN VALUE AS NOT VALID **/
     e06:	81 e0       	ldi	r24, 0x01	; 1
     e08:	08 95       	ret
			case DIO_PORTD:
			set_bit(PORTD , u8_a_pinid);         /** SET THIS PIN AS HIGH  **/
			break;
			
			default:
			en_a_valstate = NOT_VALID_VALUE ;  /** RETURN VALUE AS NOT VALID **/
     e0a:	81 e0       	ldi	r24, 0x01	; 1
		en_a_valstate = NOT_VALID_VALUE ;  /** RETURN VALUE AS NOT VALID **/
		break ;
	} 
	
	return en_a_valstate ; /** RETURN THE FINAL STATE OF THE FUNCTION */
}
     e0c:	08 95       	ret

00000e0e <DIO_readpin>:
/******************************************************************/
PinRead_t DIO_readpin(uint8_t u8_a_portid , uint8_t u8_a_pinid , uint8_t* u8_a_val)
{
	PinRead_t en_a_Pinstate = VALID_READ ;  /** VARIABLE TO HOLD THE FUNCTION ERROR STATE */
	
	switch(u8_a_portid)  /** SWITCH CASE ON PORT ID **/
     e0e:	81 30       	cpi	r24, 0x01	; 1
     e10:	99 f0       	breq	.+38     	; 0xe38 <DIO_readpin+0x2a>
     e12:	28 f0       	brcs	.+10     	; 0xe1e <DIO_readpin+0x10>
     e14:	82 30       	cpi	r24, 0x02	; 2
     e16:	e9 f0       	breq	.+58     	; 0xe52 <DIO_readpin+0x44>
     e18:	83 30       	cpi	r24, 0x03	; 3
     e1a:	41 f1       	breq	.+80     	; 0xe6c <DIO_readpin+0x5e>
     e1c:	34 c0       	rjmp	.+104    	; 0xe86 <DIO_readpin+0x78>
	{
		case DIO_PORTA:               /** PORTA  **/
		*u8_a_val = get_bit(PINA , u8_a_pinid); /** GET THE VALUE OF THE BIT **/
     e1e:	89 b3       	in	r24, 0x19	; 25
     e20:	90 e0       	ldi	r25, 0x00	; 0
     e22:	02 c0       	rjmp	.+4      	; 0xe28 <DIO_readpin+0x1a>
     e24:	95 95       	asr	r25
     e26:	87 95       	ror	r24
     e28:	6a 95       	dec	r22
     e2a:	e2 f7       	brpl	.-8      	; 0xe24 <DIO_readpin+0x16>
     e2c:	81 70       	andi	r24, 0x01	; 1
     e2e:	89 bb       	out	0x19, r24	; 25
     e30:	fa 01       	movw	r30, r20
     e32:	80 83       	st	Z, r24
/* INPUT   : u8_a_portid , PINID , POINTER TO SET THE VALUE IN IT      */
/* RETURNS : PinRead_t                                            */
/******************************************************************/
PinRead_t DIO_readpin(uint8_t u8_a_portid , uint8_t u8_a_pinid , uint8_t* u8_a_val)
{
	PinRead_t en_a_Pinstate = VALID_READ ;  /** VARIABLE TO HOLD THE FUNCTION ERROR STATE */
     e34:	80 e0       	ldi	r24, 0x00	; 0
	
	switch(u8_a_portid)  /** SWITCH CASE ON PORT ID **/
	{
		case DIO_PORTA:               /** PORTA  **/
		*u8_a_val = get_bit(PINA , u8_a_pinid); /** GET THE VALUE OF THE BIT **/
		break;
     e36:	08 95       	ret
		
		case DIO_PORTB:               /** PORTB  **/
		*u8_a_val = get_bit(PINB , u8_a_pinid); /** GET THE VALUE OF THE BIT **/
     e38:	86 b3       	in	r24, 0x16	; 22
     e3a:	90 e0       	ldi	r25, 0x00	; 0
     e3c:	02 c0       	rjmp	.+4      	; 0xe42 <DIO_readpin+0x34>
     e3e:	95 95       	asr	r25
     e40:	87 95       	ror	r24
     e42:	6a 95       	dec	r22
     e44:	e2 f7       	brpl	.-8      	; 0xe3e <DIO_readpin+0x30>
     e46:	81 70       	andi	r24, 0x01	; 1
     e48:	86 bb       	out	0x16, r24	; 22
     e4a:	fa 01       	movw	r30, r20
     e4c:	80 83       	st	Z, r24
/* INPUT   : u8_a_portid , PINID , POINTER TO SET THE VALUE IN IT      */
/* RETURNS : PinRead_t                                            */
/******************************************************************/
PinRead_t DIO_readpin(uint8_t u8_a_portid , uint8_t u8_a_pinid , uint8_t* u8_a_val)
{
	PinRead_t en_a_Pinstate = VALID_READ ;  /** VARIABLE TO HOLD THE FUNCTION ERROR STATE */
     e4e:	80 e0       	ldi	r24, 0x00	; 0
		*u8_a_val = get_bit(PINA , u8_a_pinid); /** GET THE VALUE OF THE BIT **/
		break;
		
		case DIO_PORTB:               /** PORTB  **/
		*u8_a_val = get_bit(PINB , u8_a_pinid); /** GET THE VALUE OF THE BIT **/
		break;
     e50:	08 95       	ret
		
		case DIO_PORTC:               /** PORTC  **/
		*u8_a_val = get_bit(PINC , u8_a_pinid); /** GET THE VALUE OF THE BIT **/
     e52:	83 b3       	in	r24, 0x13	; 19
     e54:	90 e0       	ldi	r25, 0x00	; 0
     e56:	02 c0       	rjmp	.+4      	; 0xe5c <DIO_readpin+0x4e>
     e58:	95 95       	asr	r25
     e5a:	87 95       	ror	r24
     e5c:	6a 95       	dec	r22
     e5e:	e2 f7       	brpl	.-8      	; 0xe58 <DIO_readpin+0x4a>
     e60:	81 70       	andi	r24, 0x01	; 1
     e62:	83 bb       	out	0x13, r24	; 19
     e64:	fa 01       	movw	r30, r20
     e66:	80 83       	st	Z, r24
/* INPUT   : u8_a_portid , PINID , POINTER TO SET THE VALUE IN IT      */
/* RETURNS : PinRead_t                                            */
/******************************************************************/
PinRead_t DIO_readpin(uint8_t u8_a_portid , uint8_t u8_a_pinid , uint8_t* u8_a_val)
{
	PinRead_t en_a_Pinstate = VALID_READ ;  /** VARIABLE TO HOLD THE FUNCTION ERROR STATE */
     e68:	80 e0       	ldi	r24, 0x00	; 0
		*u8_a_val = get_bit(PINB , u8_a_pinid); /** GET THE VALUE OF THE BIT **/
		break;
		
		case DIO_PORTC:               /** PORTC  **/
		*u8_a_val = get_bit(PINC , u8_a_pinid); /** GET THE VALUE OF THE BIT **/
		break;
     e6a:	08 95       	ret
		
		case DIO_PORTD:               /** PORTD  **/
		*u8_a_val = get_bit(PIND , u8_a_pinid); /** GET THE VALUE OF THE BIT **/
     e6c:	80 b3       	in	r24, 0x10	; 16
     e6e:	90 e0       	ldi	r25, 0x00	; 0
     e70:	02 c0       	rjmp	.+4      	; 0xe76 <DIO_readpin+0x68>
     e72:	95 95       	asr	r25
     e74:	87 95       	ror	r24
     e76:	6a 95       	dec	r22
     e78:	e2 f7       	brpl	.-8      	; 0xe72 <DIO_readpin+0x64>
     e7a:	81 70       	andi	r24, 0x01	; 1
     e7c:	80 bb       	out	0x10, r24	; 16
     e7e:	fa 01       	movw	r30, r20
     e80:	80 83       	st	Z, r24
/* INPUT   : u8_a_portid , PINID , POINTER TO SET THE VALUE IN IT      */
/* RETURNS : PinRead_t                                            */
/******************************************************************/
PinRead_t DIO_readpin(uint8_t u8_a_portid , uint8_t u8_a_pinid , uint8_t* u8_a_val)
{
	PinRead_t en_a_Pinstate = VALID_READ ;  /** VARIABLE TO HOLD THE FUNCTION ERROR STATE */
     e82:	80 e0       	ldi	r24, 0x00	; 0
		*u8_a_val = get_bit(PINC , u8_a_pinid); /** GET THE VALUE OF THE BIT **/
		break;
		
		case DIO_PORTD:               /** PORTD  **/
		*u8_a_val = get_bit(PIND , u8_a_pinid); /** GET THE VALUE OF THE BIT **/
		break;
     e84:	08 95       	ret
		
		default:
		en_a_Pinstate = NOT_VALID_READ ;  /** READ IS NOT VALID  **/
     e86:	81 e0       	ldi	r24, 0x01	; 1
		break;
	} 
	
	return en_a_Pinstate ; /** RETURN THE FINAL STATE OF THE FUNCTION **/	
}
     e88:	08 95       	ret

00000e8a <DIO_togglepin>:
/******************************************************************/
PinRead_t DIO_togglepin(uint8_t u8_a_portid , uint8_t u8_a_pinid )
{
	PinRead_t en_a_Pinreadstate = VALID_READ ;  /** VARIABLE TO HOLD THE FUNCTION ERROR STATE */
	
	switch(u8_a_portid) /** SWITCH ON THE PORT ID **/
     e8a:	81 30       	cpi	r24, 0x01	; 1
     e8c:	91 f0       	breq	.+36     	; 0xeb2 <DIO_togglepin+0x28>
     e8e:	28 f0       	brcs	.+10     	; 0xe9a <DIO_togglepin+0x10>
     e90:	82 30       	cpi	r24, 0x02	; 2
     e92:	d9 f0       	breq	.+54     	; 0xeca <DIO_togglepin+0x40>
     e94:	83 30       	cpi	r24, 0x03	; 3
     e96:	29 f1       	breq	.+74     	; 0xee2 <DIO_togglepin+0x58>
     e98:	30 c0       	rjmp	.+96     	; 0xefa <DIO_togglepin+0x70>
	{
		case DIO_PORTA:
		toggle_bit(PORTA , u8_a_pinid);
     e9a:	2b b3       	in	r18, 0x1b	; 27
     e9c:	81 e0       	ldi	r24, 0x01	; 1
     e9e:	90 e0       	ldi	r25, 0x00	; 0
     ea0:	02 c0       	rjmp	.+4      	; 0xea6 <DIO_togglepin+0x1c>
     ea2:	88 0f       	add	r24, r24
     ea4:	99 1f       	adc	r25, r25
     ea6:	6a 95       	dec	r22
     ea8:	e2 f7       	brpl	.-8      	; 0xea2 <DIO_togglepin+0x18>
     eaa:	82 27       	eor	r24, r18
     eac:	8b bb       	out	0x1b, r24	; 27
/* INPUT   : u8_a_portid , PINID                                  */
/* RETURNS : PinRead_t                                            */
/******************************************************************/
PinRead_t DIO_togglepin(uint8_t u8_a_portid , uint8_t u8_a_pinid )
{
	PinRead_t en_a_Pinreadstate = VALID_READ ;  /** VARIABLE TO HOLD THE FUNCTION ERROR STATE */
     eae:	80 e0       	ldi	r24, 0x00	; 0
	
	switch(u8_a_portid) /** SWITCH ON THE PORT ID **/
	{
		case DIO_PORTA:
		toggle_bit(PORTA , u8_a_pinid);
		break;
     eb0:	08 95       	ret
		
		case DIO_PORTB:
		toggle_bit(PORTB , u8_a_pinid);
     eb2:	28 b3       	in	r18, 0x18	; 24
     eb4:	81 e0       	ldi	r24, 0x01	; 1
     eb6:	90 e0       	ldi	r25, 0x00	; 0
     eb8:	02 c0       	rjmp	.+4      	; 0xebe <DIO_togglepin+0x34>
     eba:	88 0f       	add	r24, r24
     ebc:	99 1f       	adc	r25, r25
     ebe:	6a 95       	dec	r22
     ec0:	e2 f7       	brpl	.-8      	; 0xeba <DIO_togglepin+0x30>
     ec2:	82 27       	eor	r24, r18
     ec4:	88 bb       	out	0x18, r24	; 24
/* INPUT   : u8_a_portid , PINID                                  */
/* RETURNS : PinRead_t                                            */
/******************************************************************/
PinRead_t DIO_togglepin(uint8_t u8_a_portid , uint8_t u8_a_pinid )
{
	PinRead_t en_a_Pinreadstate = VALID_READ ;  /** VARIABLE TO HOLD THE FUNCTION ERROR STATE */
     ec6:	80 e0       	ldi	r24, 0x00	; 0
		toggle_bit(PORTA , u8_a_pinid);
		break;
		
		case DIO_PORTB:
		toggle_bit(PORTB , u8_a_pinid);
		break;
     ec8:	08 95       	ret
		
		case DIO_PORTC:
		toggle_bit(PORTC , u8_a_pinid);
     eca:	25 b3       	in	r18, 0x15	; 21
     ecc:	81 e0       	ldi	r24, 0x01	; 1
     ece:	90 e0       	ldi	r25, 0x00	; 0
     ed0:	02 c0       	rjmp	.+4      	; 0xed6 <DIO_togglepin+0x4c>
     ed2:	88 0f       	add	r24, r24
     ed4:	99 1f       	adc	r25, r25
     ed6:	6a 95       	dec	r22
     ed8:	e2 f7       	brpl	.-8      	; 0xed2 <DIO_togglepin+0x48>
     eda:	82 27       	eor	r24, r18
     edc:	85 bb       	out	0x15, r24	; 21
/* INPUT   : u8_a_portid , PINID                                  */
/* RETURNS : PinRead_t                                            */
/******************************************************************/
PinRead_t DIO_togglepin(uint8_t u8_a_portid , uint8_t u8_a_pinid )
{
	PinRead_t en_a_Pinreadstate = VALID_READ ;  /** VARIABLE TO HOLD THE FUNCTION ERROR STATE */
     ede:	80 e0       	ldi	r24, 0x00	; 0
		toggle_bit(PORTB , u8_a_pinid);
		break;
		
		case DIO_PORTC:
		toggle_bit(PORTC , u8_a_pinid);
		break;
     ee0:	08 95       	ret
		
		case DIO_PORTD:
		toggle_bit(PORTD , u8_a_pinid);
     ee2:	22 b3       	in	r18, 0x12	; 18
     ee4:	81 e0       	ldi	r24, 0x01	; 1
     ee6:	90 e0       	ldi	r25, 0x00	; 0
     ee8:	02 c0       	rjmp	.+4      	; 0xeee <DIO_togglepin+0x64>
     eea:	88 0f       	add	r24, r24
     eec:	99 1f       	adc	r25, r25
     eee:	6a 95       	dec	r22
     ef0:	e2 f7       	brpl	.-8      	; 0xeea <DIO_togglepin+0x60>
     ef2:	82 27       	eor	r24, r18
     ef4:	82 bb       	out	0x12, r24	; 18
/* INPUT   : u8_a_portid , PINID                                  */
/* RETURNS : PinRead_t                                            */
/******************************************************************/
PinRead_t DIO_togglepin(uint8_t u8_a_portid , uint8_t u8_a_pinid )
{
	PinRead_t en_a_Pinreadstate = VALID_READ ;  /** VARIABLE TO HOLD THE FUNCTION ERROR STATE */
     ef6:	80 e0       	ldi	r24, 0x00	; 0
		toggle_bit(PORTC , u8_a_pinid);
		break;
		
		case DIO_PORTD:
		toggle_bit(PORTD , u8_a_pinid);
		break;
     ef8:	08 95       	ret
		
		default:
		/** DO NOTHING **/
		en_a_Pinreadstate = NOT_VALID_READ ; /** RETURN AN ERROR **/
     efa:	81 e0       	ldi	r24, 0x01	; 1
		break;
	} 
	
	return en_a_Pinreadstate ; /** RETURN THE FINAL STATE OF THE FUNCTION **/
}
     efc:	08 95       	ret

00000efe <SPI_initslave>:
	{
		SPI_sendbyte(u8_a_str[u8_L_counter]); /** SEND CHARACTER **/
		
		u8_L_counter++; /* MOVE TO THE SECOND LETTER */
	}
}
     efe:	40 e0       	ldi	r20, 0x00	; 0
     f00:	64 e0       	ldi	r22, 0x04	; 4
     f02:	81 e0       	ldi	r24, 0x01	; 1
     f04:	0e 94 09 06 	call	0xc12	; 0xc12 <DIO_setpindir>
     f08:	40 e0       	ldi	r20, 0x00	; 0
     f0a:	65 e0       	ldi	r22, 0x05	; 5
     f0c:	81 e0       	ldi	r24, 0x01	; 1
     f0e:	0e 94 09 06 	call	0xc12	; 0xc12 <DIO_setpindir>
     f12:	41 e0       	ldi	r20, 0x01	; 1
     f14:	66 e0       	ldi	r22, 0x06	; 6
     f16:	81 e0       	ldi	r24, 0x01	; 1
     f18:	0e 94 09 06 	call	0xc12	; 0xc12 <DIO_setpindir>
     f1c:	40 e0       	ldi	r20, 0x00	; 0
     f1e:	67 e0       	ldi	r22, 0x07	; 7
     f20:	81 e0       	ldi	r24, 0x01	; 1
     f22:	0e 94 09 06 	call	0xc12	; 0xc12 <DIO_setpindir>
     f26:	8d b1       	in	r24, 0x0d	; 13
     f28:	80 64       	ori	r24, 0x40	; 64
     f2a:	8d b9       	out	0x0d, r24	; 13
     f2c:	8d b1       	in	r24, 0x0d	; 13
     f2e:	8f 7e       	andi	r24, 0xEF	; 239
     f30:	8d b9       	out	0x0d, r24	; 13
     f32:	8d b1       	in	r24, 0x0d	; 13
     f34:	87 7f       	andi	r24, 0xF7	; 247
     f36:	8d b9       	out	0x0d, r24	; 13
     f38:	8d b1       	in	r24, 0x0d	; 13
     f3a:	8b 7f       	andi	r24, 0xFB	; 251
     f3c:	8d b9       	out	0x0d, r24	; 13
     f3e:	08 95       	ret

00000f40 <SPI_receivebyte>:
     f40:	77 9b       	sbis	0x0e, 7	; 14
     f42:	fe cf       	rjmp	.-4      	; 0xf40 <SPI_receivebyte>
     f44:	2f b1       	in	r18, 0x0f	; 15
     f46:	fc 01       	movw	r30, r24
     f48:	20 83       	st	Z, r18
     f4a:	08 95       	ret

00000f4c <SPI_receivestring>:
/** FUNCTION FOR MASTER TO SEND STRING                          **/
/** ARGUMENTS  : u8_a_str (string)                              **/
/** RETURNS    : en_a_spierrstatus                              **/
/*****************************************************************/
en_a_spierrstatus SPI_receivestring(uint8_t * u8_a_str)
{
     f4c:	0f 93       	push	r16
     f4e:	1f 93       	push	r17
     f50:	cf 93       	push	r28
     f52:	8c 01       	movw	r16, r24
	uint8_t u8_L_counter = 0 ; /** COUNTER FOR STRING LETTERS **/
     f54:	c0 e0       	ldi	r28, 0x00	; 0
	
	//str[counter] = SPI_RECEIVE_BYTE();
	
	while (u8_a_str[u8_L_counter] != '\0')
     f56:	03 c0       	rjmp	.+6      	; 0xf5e <SPI_receivestring+0x12>
	{
		SPI_receivebyte(&u8_a_str[u8_L_counter]); /** RECEIVE CHARACTER **/
     f58:	0e 94 a0 07 	call	0xf40	; 0xf40 <SPI_receivebyte>
		
		u8_L_counter++ ; /* MOVE TO THE SECOND LETTER */
     f5c:	cf 5f       	subi	r28, 0xFF	; 255
{
	uint8_t u8_L_counter = 0 ; /** COUNTER FOR STRING LETTERS **/
	
	//str[counter] = SPI_RECEIVE_BYTE();
	
	while (u8_a_str[u8_L_counter] != '\0')
     f5e:	c8 01       	movw	r24, r16
     f60:	8c 0f       	add	r24, r28
     f62:	91 1d       	adc	r25, r1
     f64:	fc 01       	movw	r30, r24
     f66:	20 81       	ld	r18, Z
     f68:	21 11       	cpse	r18, r1
     f6a:	f6 cf       	rjmp	.-20     	; 0xf58 <SPI_receivestring+0xc>
		
		u8_L_counter++ ; /* MOVE TO THE SECOND LETTER */
	}
	
	
	u8_a_str[u8_L_counter] = '\0' ; /* TERMINATOR OF STRING */
     f6c:	10 82       	st	Z, r1
}
     f6e:	cf 91       	pop	r28
     f70:	1f 91       	pop	r17
     f72:	0f 91       	pop	r16
     f74:	08 95       	ret

00000f76 <TMR0_init>:
	 /* TIMER MODE OF TMR0 */
	#elif TIMER0_CLK_SRC == INTERNAL_CLK_SRC
	
	 #if TIMER0_MODE == TMR0_NORMAL_MODE
	 
	 clear_bit(TCCR0 , 7);
     f76:	83 b7       	in	r24, 0x33	; 51
     f78:	8f 77       	andi	r24, 0x7F	; 127
     f7a:	83 bf       	out	0x33, r24	; 51
	 clear_bit(TCCR0 , 6);
     f7c:	83 b7       	in	r24, 0x33	; 51
     f7e:	8f 7b       	andi	r24, 0xBF	; 191
     f80:	83 bf       	out	0x33, r24	; 51
	 clear_bit(TCCR0 , 3);
     f82:	83 b7       	in	r24, 0x33	; 51
     f84:	87 7f       	andi	r24, 0xF7	; 247
     f86:	83 bf       	out	0x33, r24	; 51
	 clear_bit(TCCR0 , 4);
     f88:	83 b7       	in	r24, 0x33	; 51
     f8a:	8f 7e       	andi	r24, 0xEF	; 239
     f8c:	83 bf       	out	0x33, r24	; 51
	 clear_bit(TCCR0 , 5);
     f8e:	83 b7       	in	r24, 0x33	; 51
     f90:	8f 7d       	andi	r24, 0xDF	; 223
     f92:	83 bf       	out	0x33, r24	; 51
	  #endif
	 #endif
	#endif
	
	return en_a_initstatus ; /** RETURN THE STATUS OF INITIALIZATION **/
}
     f94:	80 e0       	ldi	r24, 0x00	; 0
     f96:	08 95       	ret

00000f98 <TMR0_start>:
{
	TMR0_start_error en_a_startstatus = VALID_START ; /** VARIABLE TO RETURN THE STATUS OF START **/
	
	#if TIMER0_PRESCALER_VAL == PRESCALER_1024
	
	set_bit(TCCR0 , 0);
     f98:	83 b7       	in	r24, 0x33	; 51
     f9a:	81 60       	ori	r24, 0x01	; 1
     f9c:	83 bf       	out	0x33, r24	; 51
	clear_bit(TCCR0 , 1);
     f9e:	83 b7       	in	r24, 0x33	; 51
     fa0:	8d 7f       	andi	r24, 0xFD	; 253
     fa2:	83 bf       	out	0x33, r24	; 51
	set_bit(TCCR0 , 2);
     fa4:	83 b7       	in	r24, 0x33	; 51
     fa6:	84 60       	ori	r24, 0x04	; 4
     fa8:	83 bf       	out	0x33, r24	; 51
	en_a_startstatus = VALID_START ; /** START DONE PROBERLY **/
	
	#endif
	
	return en_a_startstatus ; /** RETURN THE STATUS **/
}
     faa:	80 e0       	ldi	r24, 0x00	; 0
     fac:	08 95       	ret

00000fae <TMR0_stop>:
TMR0_stop_error TMR0_stop(void)
{
	TMR0_stop_error en_a_stopStatus = VALID_STOP ; /** VARIABLE TO RETURN THE STATUS **/
	
	/** SET CONFIGURATIONS AS NO CLOCK SOURCE **/
	clear_bit(TCCR0 , 0);
     fae:	83 b7       	in	r24, 0x33	; 51
     fb0:	8e 7f       	andi	r24, 0xFE	; 254
     fb2:	83 bf       	out	0x33, r24	; 51
	clear_bit(TCCR0 , 1);
     fb4:	83 b7       	in	r24, 0x33	; 51
     fb6:	8d 7f       	andi	r24, 0xFD	; 253
     fb8:	83 bf       	out	0x33, r24	; 51
	clear_bit(TCCR0 , 2);
     fba:	83 b7       	in	r24, 0x33	; 51
     fbc:	8b 7f       	andi	r24, 0xFB	; 251
     fbe:	83 bf       	out	0x33, r24	; 51
	
	en_a_stopStatus = VALID_STOP ; /** STOP DONE PROPERLY **/
	
	return en_a_stopStatus ; /** RETURN THE STATUS **/
	
}
     fc0:	80 e0       	ldi	r24, 0x00	; 0
     fc2:	08 95       	ret

00000fc4 <TMR0_delayms>:
	/******************************************************************************************/
	/**               THIS CALCULATIONS CONFIGURED AS F_CPU   16 MHZ                         **/
	/******************************************************************************************/
	#if TIMER0_PRESCALER_VAL == PRESCALER_1024  /** CHECK THE PRESCALLER FROM CONFIG FILE **/
	 
        u32_gs_tmr0nuofovs = (u32_a_delayms / 16.384);   /** CALCULATING NUMBER OF OVERFLOWS ( DESIRED DELAY / TIME OF OVER FLOW ) **/ 
     fc4:	0e 94 38 09 	call	0x1270	; 0x1270 <__floatunsisf>
     fc8:	2f e6       	ldi	r18, 0x6F	; 111
     fca:	32 e1       	ldi	r19, 0x12	; 18
     fcc:	43 e8       	ldi	r20, 0x83	; 131
     fce:	51 e4       	ldi	r21, 0x41	; 65
     fd0:	0e 94 90 08 	call	0x1120	; 0x1120 <__divsf3>
     fd4:	0e 94 09 09 	call	0x1212	; 0x1212 <__fixunssfsi>
     fd8:	60 93 b4 01 	sts	0x01B4, r22	; 0x8001b4 <u32_gs_tmr0nuofovs>
     fdc:	70 93 b5 01 	sts	0x01B5, r23	; 0x8001b5 <u32_gs_tmr0nuofovs+0x1>
     fe0:	80 93 b6 01 	sts	0x01B6, r24	; 0x8001b6 <u32_gs_tmr0nuofovs+0x2>
     fe4:	90 93 b7 01 	sts	0x01B7, r25	; 0x8001b7 <u32_gs_tmr0nuofovs+0x3>
	
        TCNT0 = 0 ;   /** SET THE INITIAL VALUE IN TCNT0 REGISTER **/
     fe8:	12 be       	out	0x32, r1	; 50
	
	    en_a_delaystatus = VALID_DELAY ; /** VALID DELAY CONFIGURATIN **/
	
	#endif
	
	TMR0_start(); /** START TMR0 PRESCALLER **/
     fea:	0e 94 cc 07 	call	0xf98	; 0xf98 <TMR0_start>
/** RETURNS    : TMR0_delay                                                    */
/*******************************************************************************/
TMR0_delay_error TMR0_delayms(uint32_t u32_a_delayms)
{
	
	uint32_t u32_a_overflowcounter = 0 ;
     fee:	40 e0       	ldi	r20, 0x00	; 0
     ff0:	50 e0       	ldi	r21, 0x00	; 0
     ff2:	ba 01       	movw	r22, r20
	
	#endif
	
	TMR0_start(); /** START TMR0 PRESCALLER **/
	
	while ( u32_a_overflowcounter < u32_gs_tmr0nuofovs ) /** STUCK IN THIS LOOP UNTILL THIS CONDITION IS FALSE **/
     ff4:	0a c0       	rjmp	.+20     	; 0x100a <TMR0_delayms+0x46>
	{
		while((TIFR & (1 << 0)) == 0); /** DO NOTHING UNTILL THIS FLAG RAISED (OVERFLOW HAPPENED) **/
     ff6:	08 b6       	in	r0, 0x38	; 56
     ff8:	00 fe       	sbrs	r0, 0
     ffa:	fd cf       	rjmp	.-6      	; 0xff6 <TMR0_delayms+0x32>
		
		set_bit(TIFR , 0);        /** CLEAR THE FLAG BY SOFTWARE **/
     ffc:	88 b7       	in	r24, 0x38	; 56
     ffe:	81 60       	ori	r24, 0x01	; 1
    1000:	88 bf       	out	0x38, r24	; 56
		
		u32_a_overflowcounter++ ; /** INCREASE THE OVERFLOWS BY ONE **/
    1002:	4f 5f       	subi	r20, 0xFF	; 255
    1004:	5f 4f       	sbci	r21, 0xFF	; 255
    1006:	6f 4f       	sbci	r22, 0xFF	; 255
    1008:	7f 4f       	sbci	r23, 0xFF	; 255
	
	#endif
	
	TMR0_start(); /** START TMR0 PRESCALLER **/
	
	while ( u32_a_overflowcounter < u32_gs_tmr0nuofovs ) /** STUCK IN THIS LOOP UNTILL THIS CONDITION IS FALSE **/
    100a:	80 91 b4 01 	lds	r24, 0x01B4	; 0x8001b4 <u32_gs_tmr0nuofovs>
    100e:	90 91 b5 01 	lds	r25, 0x01B5	; 0x8001b5 <u32_gs_tmr0nuofovs+0x1>
    1012:	a0 91 b6 01 	lds	r26, 0x01B6	; 0x8001b6 <u32_gs_tmr0nuofovs+0x2>
    1016:	b0 91 b7 01 	lds	r27, 0x01B7	; 0x8001b7 <u32_gs_tmr0nuofovs+0x3>
    101a:	48 17       	cp	r20, r24
    101c:	59 07       	cpc	r21, r25
    101e:	6a 07       	cpc	r22, r26
    1020:	7b 07       	cpc	r23, r27
    1022:	48 f3       	brcs	.-46     	; 0xff6 <TMR0_delayms+0x32>
		set_bit(TIFR , 0);        /** CLEAR THE FLAG BY SOFTWARE **/
		
		u32_a_overflowcounter++ ; /** INCREASE THE OVERFLOWS BY ONE **/
	}
	
	u32_gs_tmr0nuofovs = 0 ; /** REINTIALIZE THE OVERFLOWS COUNTER TO 0 AGAIN **/
    1024:	10 92 b4 01 	sts	0x01B4, r1	; 0x8001b4 <u32_gs_tmr0nuofovs>
    1028:	10 92 b5 01 	sts	0x01B5, r1	; 0x8001b5 <u32_gs_tmr0nuofovs+0x1>
    102c:	10 92 b6 01 	sts	0x01B6, r1	; 0x8001b6 <u32_gs_tmr0nuofovs+0x2>
    1030:	10 92 b7 01 	sts	0x01B7, r1	; 0x8001b7 <u32_gs_tmr0nuofovs+0x3>

	TMR0_stop();   /** STOP TMR0 TOSTART FROM 0 WHEN IT CALLED AGAIN **/
    1034:	0e 94 d7 07 	call	0xfae	; 0xfae <TMR0_stop>
	
	return en_a_delaystatus ; /** RETURN THE STATUS **/
}
    1038:	80 e0       	ldi	r24, 0x00	; 0
    103a:	08 95       	ret

0000103c <__subsf3>:
    103c:	50 58       	subi	r21, 0x80	; 128

0000103e <__addsf3>:
    103e:	bb 27       	eor	r27, r27
    1040:	aa 27       	eor	r26, r26
    1042:	0e 94 36 08 	call	0x106c	; 0x106c <__addsf3x>
    1046:	0c 94 b0 09 	jmp	0x1360	; 0x1360 <__fp_round>
    104a:	0e 94 a2 09 	call	0x1344	; 0x1344 <__fp_pscA>
    104e:	38 f0       	brcs	.+14     	; 0x105e <__addsf3+0x20>
    1050:	0e 94 a9 09 	call	0x1352	; 0x1352 <__fp_pscB>
    1054:	20 f0       	brcs	.+8      	; 0x105e <__addsf3+0x20>
    1056:	39 f4       	brne	.+14     	; 0x1066 <__addsf3+0x28>
    1058:	9f 3f       	cpi	r25, 0xFF	; 255
    105a:	19 f4       	brne	.+6      	; 0x1062 <__addsf3+0x24>
    105c:	26 f4       	brtc	.+8      	; 0x1066 <__addsf3+0x28>
    105e:	0c 94 9f 09 	jmp	0x133e	; 0x133e <__fp_nan>
    1062:	0e f4       	brtc	.+2      	; 0x1066 <__addsf3+0x28>
    1064:	e0 95       	com	r30
    1066:	e7 fb       	bst	r30, 7
    1068:	0c 94 99 09 	jmp	0x1332	; 0x1332 <__fp_inf>

0000106c <__addsf3x>:
    106c:	e9 2f       	mov	r30, r25
    106e:	0e 94 c1 09 	call	0x1382	; 0x1382 <__fp_split3>
    1072:	58 f3       	brcs	.-42     	; 0x104a <__addsf3+0xc>
    1074:	ba 17       	cp	r27, r26
    1076:	62 07       	cpc	r22, r18
    1078:	73 07       	cpc	r23, r19
    107a:	84 07       	cpc	r24, r20
    107c:	95 07       	cpc	r25, r21
    107e:	20 f0       	brcs	.+8      	; 0x1088 <__addsf3x+0x1c>
    1080:	79 f4       	brne	.+30     	; 0x10a0 <__addsf3x+0x34>
    1082:	a6 f5       	brtc	.+104    	; 0x10ec <__addsf3x+0x80>
    1084:	0c 94 e3 09 	jmp	0x13c6	; 0x13c6 <__fp_zero>
    1088:	0e f4       	brtc	.+2      	; 0x108c <__addsf3x+0x20>
    108a:	e0 95       	com	r30
    108c:	0b 2e       	mov	r0, r27
    108e:	ba 2f       	mov	r27, r26
    1090:	a0 2d       	mov	r26, r0
    1092:	0b 01       	movw	r0, r22
    1094:	b9 01       	movw	r22, r18
    1096:	90 01       	movw	r18, r0
    1098:	0c 01       	movw	r0, r24
    109a:	ca 01       	movw	r24, r20
    109c:	a0 01       	movw	r20, r0
    109e:	11 24       	eor	r1, r1
    10a0:	ff 27       	eor	r31, r31
    10a2:	59 1b       	sub	r21, r25
    10a4:	99 f0       	breq	.+38     	; 0x10cc <__addsf3x+0x60>
    10a6:	59 3f       	cpi	r21, 0xF9	; 249
    10a8:	50 f4       	brcc	.+20     	; 0x10be <__addsf3x+0x52>
    10aa:	50 3e       	cpi	r21, 0xE0	; 224
    10ac:	68 f1       	brcs	.+90     	; 0x1108 <__addsf3x+0x9c>
    10ae:	1a 16       	cp	r1, r26
    10b0:	f0 40       	sbci	r31, 0x00	; 0
    10b2:	a2 2f       	mov	r26, r18
    10b4:	23 2f       	mov	r18, r19
    10b6:	34 2f       	mov	r19, r20
    10b8:	44 27       	eor	r20, r20
    10ba:	58 5f       	subi	r21, 0xF8	; 248
    10bc:	f3 cf       	rjmp	.-26     	; 0x10a4 <__addsf3x+0x38>
    10be:	46 95       	lsr	r20
    10c0:	37 95       	ror	r19
    10c2:	27 95       	ror	r18
    10c4:	a7 95       	ror	r26
    10c6:	f0 40       	sbci	r31, 0x00	; 0
    10c8:	53 95       	inc	r21
    10ca:	c9 f7       	brne	.-14     	; 0x10be <__addsf3x+0x52>
    10cc:	7e f4       	brtc	.+30     	; 0x10ec <__addsf3x+0x80>
    10ce:	1f 16       	cp	r1, r31
    10d0:	ba 0b       	sbc	r27, r26
    10d2:	62 0b       	sbc	r22, r18
    10d4:	73 0b       	sbc	r23, r19
    10d6:	84 0b       	sbc	r24, r20
    10d8:	ba f0       	brmi	.+46     	; 0x1108 <__addsf3x+0x9c>
    10da:	91 50       	subi	r25, 0x01	; 1
    10dc:	a1 f0       	breq	.+40     	; 0x1106 <__addsf3x+0x9a>
    10de:	ff 0f       	add	r31, r31
    10e0:	bb 1f       	adc	r27, r27
    10e2:	66 1f       	adc	r22, r22
    10e4:	77 1f       	adc	r23, r23
    10e6:	88 1f       	adc	r24, r24
    10e8:	c2 f7       	brpl	.-16     	; 0x10da <__addsf3x+0x6e>
    10ea:	0e c0       	rjmp	.+28     	; 0x1108 <__addsf3x+0x9c>
    10ec:	ba 0f       	add	r27, r26
    10ee:	62 1f       	adc	r22, r18
    10f0:	73 1f       	adc	r23, r19
    10f2:	84 1f       	adc	r24, r20
    10f4:	48 f4       	brcc	.+18     	; 0x1108 <__addsf3x+0x9c>
    10f6:	87 95       	ror	r24
    10f8:	77 95       	ror	r23
    10fa:	67 95       	ror	r22
    10fc:	b7 95       	ror	r27
    10fe:	f7 95       	ror	r31
    1100:	9e 3f       	cpi	r25, 0xFE	; 254
    1102:	08 f0       	brcs	.+2      	; 0x1106 <__addsf3x+0x9a>
    1104:	b0 cf       	rjmp	.-160    	; 0x1066 <__addsf3+0x28>
    1106:	93 95       	inc	r25
    1108:	88 0f       	add	r24, r24
    110a:	08 f0       	brcs	.+2      	; 0x110e <__addsf3x+0xa2>
    110c:	99 27       	eor	r25, r25
    110e:	ee 0f       	add	r30, r30
    1110:	97 95       	ror	r25
    1112:	87 95       	ror	r24
    1114:	08 95       	ret

00001116 <__cmpsf2>:
    1116:	0e 94 75 09 	call	0x12ea	; 0x12ea <__fp_cmp>
    111a:	08 f4       	brcc	.+2      	; 0x111e <__cmpsf2+0x8>
    111c:	81 e0       	ldi	r24, 0x01	; 1
    111e:	08 95       	ret

00001120 <__divsf3>:
    1120:	0e 94 a4 08 	call	0x1148	; 0x1148 <__divsf3x>
    1124:	0c 94 b0 09 	jmp	0x1360	; 0x1360 <__fp_round>
    1128:	0e 94 a9 09 	call	0x1352	; 0x1352 <__fp_pscB>
    112c:	58 f0       	brcs	.+22     	; 0x1144 <__divsf3+0x24>
    112e:	0e 94 a2 09 	call	0x1344	; 0x1344 <__fp_pscA>
    1132:	40 f0       	brcs	.+16     	; 0x1144 <__divsf3+0x24>
    1134:	29 f4       	brne	.+10     	; 0x1140 <__divsf3+0x20>
    1136:	5f 3f       	cpi	r21, 0xFF	; 255
    1138:	29 f0       	breq	.+10     	; 0x1144 <__divsf3+0x24>
    113a:	0c 94 99 09 	jmp	0x1332	; 0x1332 <__fp_inf>
    113e:	51 11       	cpse	r21, r1
    1140:	0c 94 e4 09 	jmp	0x13c8	; 0x13c8 <__fp_szero>
    1144:	0c 94 9f 09 	jmp	0x133e	; 0x133e <__fp_nan>

00001148 <__divsf3x>:
    1148:	0e 94 c1 09 	call	0x1382	; 0x1382 <__fp_split3>
    114c:	68 f3       	brcs	.-38     	; 0x1128 <__divsf3+0x8>

0000114e <__divsf3_pse>:
    114e:	99 23       	and	r25, r25
    1150:	b1 f3       	breq	.-20     	; 0x113e <__divsf3+0x1e>
    1152:	55 23       	and	r21, r21
    1154:	91 f3       	breq	.-28     	; 0x113a <__divsf3+0x1a>
    1156:	95 1b       	sub	r25, r21
    1158:	55 0b       	sbc	r21, r21
    115a:	bb 27       	eor	r27, r27
    115c:	aa 27       	eor	r26, r26
    115e:	62 17       	cp	r22, r18
    1160:	73 07       	cpc	r23, r19
    1162:	84 07       	cpc	r24, r20
    1164:	38 f0       	brcs	.+14     	; 0x1174 <__divsf3_pse+0x26>
    1166:	9f 5f       	subi	r25, 0xFF	; 255
    1168:	5f 4f       	sbci	r21, 0xFF	; 255
    116a:	22 0f       	add	r18, r18
    116c:	33 1f       	adc	r19, r19
    116e:	44 1f       	adc	r20, r20
    1170:	aa 1f       	adc	r26, r26
    1172:	a9 f3       	breq	.-22     	; 0x115e <__divsf3_pse+0x10>
    1174:	35 d0       	rcall	.+106    	; 0x11e0 <__divsf3_pse+0x92>
    1176:	0e 2e       	mov	r0, r30
    1178:	3a f0       	brmi	.+14     	; 0x1188 <__divsf3_pse+0x3a>
    117a:	e0 e8       	ldi	r30, 0x80	; 128
    117c:	32 d0       	rcall	.+100    	; 0x11e2 <__divsf3_pse+0x94>
    117e:	91 50       	subi	r25, 0x01	; 1
    1180:	50 40       	sbci	r21, 0x00	; 0
    1182:	e6 95       	lsr	r30
    1184:	00 1c       	adc	r0, r0
    1186:	ca f7       	brpl	.-14     	; 0x117a <__divsf3_pse+0x2c>
    1188:	2b d0       	rcall	.+86     	; 0x11e0 <__divsf3_pse+0x92>
    118a:	fe 2f       	mov	r31, r30
    118c:	29 d0       	rcall	.+82     	; 0x11e0 <__divsf3_pse+0x92>
    118e:	66 0f       	add	r22, r22
    1190:	77 1f       	adc	r23, r23
    1192:	88 1f       	adc	r24, r24
    1194:	bb 1f       	adc	r27, r27
    1196:	26 17       	cp	r18, r22
    1198:	37 07       	cpc	r19, r23
    119a:	48 07       	cpc	r20, r24
    119c:	ab 07       	cpc	r26, r27
    119e:	b0 e8       	ldi	r27, 0x80	; 128
    11a0:	09 f0       	breq	.+2      	; 0x11a4 <__divsf3_pse+0x56>
    11a2:	bb 0b       	sbc	r27, r27
    11a4:	80 2d       	mov	r24, r0
    11a6:	bf 01       	movw	r22, r30
    11a8:	ff 27       	eor	r31, r31
    11aa:	93 58       	subi	r25, 0x83	; 131
    11ac:	5f 4f       	sbci	r21, 0xFF	; 255
    11ae:	3a f0       	brmi	.+14     	; 0x11be <__divsf3_pse+0x70>
    11b0:	9e 3f       	cpi	r25, 0xFE	; 254
    11b2:	51 05       	cpc	r21, r1
    11b4:	78 f0       	brcs	.+30     	; 0x11d4 <__divsf3_pse+0x86>
    11b6:	0c 94 99 09 	jmp	0x1332	; 0x1332 <__fp_inf>
    11ba:	0c 94 e4 09 	jmp	0x13c8	; 0x13c8 <__fp_szero>
    11be:	5f 3f       	cpi	r21, 0xFF	; 255
    11c0:	e4 f3       	brlt	.-8      	; 0x11ba <__divsf3_pse+0x6c>
    11c2:	98 3e       	cpi	r25, 0xE8	; 232
    11c4:	d4 f3       	brlt	.-12     	; 0x11ba <__divsf3_pse+0x6c>
    11c6:	86 95       	lsr	r24
    11c8:	77 95       	ror	r23
    11ca:	67 95       	ror	r22
    11cc:	b7 95       	ror	r27
    11ce:	f7 95       	ror	r31
    11d0:	9f 5f       	subi	r25, 0xFF	; 255
    11d2:	c9 f7       	brne	.-14     	; 0x11c6 <__divsf3_pse+0x78>
    11d4:	88 0f       	add	r24, r24
    11d6:	91 1d       	adc	r25, r1
    11d8:	96 95       	lsr	r25
    11da:	87 95       	ror	r24
    11dc:	97 f9       	bld	r25, 7
    11de:	08 95       	ret
    11e0:	e1 e0       	ldi	r30, 0x01	; 1
    11e2:	66 0f       	add	r22, r22
    11e4:	77 1f       	adc	r23, r23
    11e6:	88 1f       	adc	r24, r24
    11e8:	bb 1f       	adc	r27, r27
    11ea:	62 17       	cp	r22, r18
    11ec:	73 07       	cpc	r23, r19
    11ee:	84 07       	cpc	r24, r20
    11f0:	ba 07       	cpc	r27, r26
    11f2:	20 f0       	brcs	.+8      	; 0x11fc <__divsf3_pse+0xae>
    11f4:	62 1b       	sub	r22, r18
    11f6:	73 0b       	sbc	r23, r19
    11f8:	84 0b       	sbc	r24, r20
    11fa:	ba 0b       	sbc	r27, r26
    11fc:	ee 1f       	adc	r30, r30
    11fe:	88 f7       	brcc	.-30     	; 0x11e2 <__divsf3_pse+0x94>
    1200:	e0 95       	com	r30
    1202:	08 95       	ret

00001204 <__fixsfsi>:
    1204:	0e 94 09 09 	call	0x1212	; 0x1212 <__fixunssfsi>
    1208:	68 94       	set
    120a:	b1 11       	cpse	r27, r1
    120c:	0c 94 e4 09 	jmp	0x13c8	; 0x13c8 <__fp_szero>
    1210:	08 95       	ret

00001212 <__fixunssfsi>:
    1212:	0e 94 c9 09 	call	0x1392	; 0x1392 <__fp_splitA>
    1216:	88 f0       	brcs	.+34     	; 0x123a <__fixunssfsi+0x28>
    1218:	9f 57       	subi	r25, 0x7F	; 127
    121a:	98 f0       	brcs	.+38     	; 0x1242 <__fixunssfsi+0x30>
    121c:	b9 2f       	mov	r27, r25
    121e:	99 27       	eor	r25, r25
    1220:	b7 51       	subi	r27, 0x17	; 23
    1222:	b0 f0       	brcs	.+44     	; 0x1250 <__fixunssfsi+0x3e>
    1224:	e1 f0       	breq	.+56     	; 0x125e <__fixunssfsi+0x4c>
    1226:	66 0f       	add	r22, r22
    1228:	77 1f       	adc	r23, r23
    122a:	88 1f       	adc	r24, r24
    122c:	99 1f       	adc	r25, r25
    122e:	1a f0       	brmi	.+6      	; 0x1236 <__fixunssfsi+0x24>
    1230:	ba 95       	dec	r27
    1232:	c9 f7       	brne	.-14     	; 0x1226 <__fixunssfsi+0x14>
    1234:	14 c0       	rjmp	.+40     	; 0x125e <__fixunssfsi+0x4c>
    1236:	b1 30       	cpi	r27, 0x01	; 1
    1238:	91 f0       	breq	.+36     	; 0x125e <__fixunssfsi+0x4c>
    123a:	0e 94 e3 09 	call	0x13c6	; 0x13c6 <__fp_zero>
    123e:	b1 e0       	ldi	r27, 0x01	; 1
    1240:	08 95       	ret
    1242:	0c 94 e3 09 	jmp	0x13c6	; 0x13c6 <__fp_zero>
    1246:	67 2f       	mov	r22, r23
    1248:	78 2f       	mov	r23, r24
    124a:	88 27       	eor	r24, r24
    124c:	b8 5f       	subi	r27, 0xF8	; 248
    124e:	39 f0       	breq	.+14     	; 0x125e <__fixunssfsi+0x4c>
    1250:	b9 3f       	cpi	r27, 0xF9	; 249
    1252:	cc f3       	brlt	.-14     	; 0x1246 <__fixunssfsi+0x34>
    1254:	86 95       	lsr	r24
    1256:	77 95       	ror	r23
    1258:	67 95       	ror	r22
    125a:	b3 95       	inc	r27
    125c:	d9 f7       	brne	.-10     	; 0x1254 <__fixunssfsi+0x42>
    125e:	3e f4       	brtc	.+14     	; 0x126e <__fixunssfsi+0x5c>
    1260:	90 95       	com	r25
    1262:	80 95       	com	r24
    1264:	70 95       	com	r23
    1266:	61 95       	neg	r22
    1268:	7f 4f       	sbci	r23, 0xFF	; 255
    126a:	8f 4f       	sbci	r24, 0xFF	; 255
    126c:	9f 4f       	sbci	r25, 0xFF	; 255
    126e:	08 95       	ret

00001270 <__floatunsisf>:
    1270:	e8 94       	clt
    1272:	09 c0       	rjmp	.+18     	; 0x1286 <__floatsisf+0x12>

00001274 <__floatsisf>:
    1274:	97 fb       	bst	r25, 7
    1276:	3e f4       	brtc	.+14     	; 0x1286 <__floatsisf+0x12>
    1278:	90 95       	com	r25
    127a:	80 95       	com	r24
    127c:	70 95       	com	r23
    127e:	61 95       	neg	r22
    1280:	7f 4f       	sbci	r23, 0xFF	; 255
    1282:	8f 4f       	sbci	r24, 0xFF	; 255
    1284:	9f 4f       	sbci	r25, 0xFF	; 255
    1286:	99 23       	and	r25, r25
    1288:	a9 f0       	breq	.+42     	; 0x12b4 <__floatsisf+0x40>
    128a:	f9 2f       	mov	r31, r25
    128c:	96 e9       	ldi	r25, 0x96	; 150
    128e:	bb 27       	eor	r27, r27
    1290:	93 95       	inc	r25
    1292:	f6 95       	lsr	r31
    1294:	87 95       	ror	r24
    1296:	77 95       	ror	r23
    1298:	67 95       	ror	r22
    129a:	b7 95       	ror	r27
    129c:	f1 11       	cpse	r31, r1
    129e:	f8 cf       	rjmp	.-16     	; 0x1290 <__floatsisf+0x1c>
    12a0:	fa f4       	brpl	.+62     	; 0x12e0 <__floatsisf+0x6c>
    12a2:	bb 0f       	add	r27, r27
    12a4:	11 f4       	brne	.+4      	; 0x12aa <__floatsisf+0x36>
    12a6:	60 ff       	sbrs	r22, 0
    12a8:	1b c0       	rjmp	.+54     	; 0x12e0 <__floatsisf+0x6c>
    12aa:	6f 5f       	subi	r22, 0xFF	; 255
    12ac:	7f 4f       	sbci	r23, 0xFF	; 255
    12ae:	8f 4f       	sbci	r24, 0xFF	; 255
    12b0:	9f 4f       	sbci	r25, 0xFF	; 255
    12b2:	16 c0       	rjmp	.+44     	; 0x12e0 <__floatsisf+0x6c>
    12b4:	88 23       	and	r24, r24
    12b6:	11 f0       	breq	.+4      	; 0x12bc <__floatsisf+0x48>
    12b8:	96 e9       	ldi	r25, 0x96	; 150
    12ba:	11 c0       	rjmp	.+34     	; 0x12de <__floatsisf+0x6a>
    12bc:	77 23       	and	r23, r23
    12be:	21 f0       	breq	.+8      	; 0x12c8 <__floatsisf+0x54>
    12c0:	9e e8       	ldi	r25, 0x8E	; 142
    12c2:	87 2f       	mov	r24, r23
    12c4:	76 2f       	mov	r23, r22
    12c6:	05 c0       	rjmp	.+10     	; 0x12d2 <__floatsisf+0x5e>
    12c8:	66 23       	and	r22, r22
    12ca:	71 f0       	breq	.+28     	; 0x12e8 <__floatsisf+0x74>
    12cc:	96 e8       	ldi	r25, 0x86	; 134
    12ce:	86 2f       	mov	r24, r22
    12d0:	70 e0       	ldi	r23, 0x00	; 0
    12d2:	60 e0       	ldi	r22, 0x00	; 0
    12d4:	2a f0       	brmi	.+10     	; 0x12e0 <__floatsisf+0x6c>
    12d6:	9a 95       	dec	r25
    12d8:	66 0f       	add	r22, r22
    12da:	77 1f       	adc	r23, r23
    12dc:	88 1f       	adc	r24, r24
    12de:	da f7       	brpl	.-10     	; 0x12d6 <__floatsisf+0x62>
    12e0:	88 0f       	add	r24, r24
    12e2:	96 95       	lsr	r25
    12e4:	87 95       	ror	r24
    12e6:	97 f9       	bld	r25, 7
    12e8:	08 95       	ret

000012ea <__fp_cmp>:
    12ea:	99 0f       	add	r25, r25
    12ec:	00 08       	sbc	r0, r0
    12ee:	55 0f       	add	r21, r21
    12f0:	aa 0b       	sbc	r26, r26
    12f2:	e0 e8       	ldi	r30, 0x80	; 128
    12f4:	fe ef       	ldi	r31, 0xFE	; 254
    12f6:	16 16       	cp	r1, r22
    12f8:	17 06       	cpc	r1, r23
    12fa:	e8 07       	cpc	r30, r24
    12fc:	f9 07       	cpc	r31, r25
    12fe:	c0 f0       	brcs	.+48     	; 0x1330 <__fp_cmp+0x46>
    1300:	12 16       	cp	r1, r18
    1302:	13 06       	cpc	r1, r19
    1304:	e4 07       	cpc	r30, r20
    1306:	f5 07       	cpc	r31, r21
    1308:	98 f0       	brcs	.+38     	; 0x1330 <__fp_cmp+0x46>
    130a:	62 1b       	sub	r22, r18
    130c:	73 0b       	sbc	r23, r19
    130e:	84 0b       	sbc	r24, r20
    1310:	95 0b       	sbc	r25, r21
    1312:	39 f4       	brne	.+14     	; 0x1322 <__fp_cmp+0x38>
    1314:	0a 26       	eor	r0, r26
    1316:	61 f0       	breq	.+24     	; 0x1330 <__fp_cmp+0x46>
    1318:	23 2b       	or	r18, r19
    131a:	24 2b       	or	r18, r20
    131c:	25 2b       	or	r18, r21
    131e:	21 f4       	brne	.+8      	; 0x1328 <__fp_cmp+0x3e>
    1320:	08 95       	ret
    1322:	0a 26       	eor	r0, r26
    1324:	09 f4       	brne	.+2      	; 0x1328 <__fp_cmp+0x3e>
    1326:	a1 40       	sbci	r26, 0x01	; 1
    1328:	a6 95       	lsr	r26
    132a:	8f ef       	ldi	r24, 0xFF	; 255
    132c:	81 1d       	adc	r24, r1
    132e:	81 1d       	adc	r24, r1
    1330:	08 95       	ret

00001332 <__fp_inf>:
    1332:	97 f9       	bld	r25, 7
    1334:	9f 67       	ori	r25, 0x7F	; 127
    1336:	80 e8       	ldi	r24, 0x80	; 128
    1338:	70 e0       	ldi	r23, 0x00	; 0
    133a:	60 e0       	ldi	r22, 0x00	; 0
    133c:	08 95       	ret

0000133e <__fp_nan>:
    133e:	9f ef       	ldi	r25, 0xFF	; 255
    1340:	80 ec       	ldi	r24, 0xC0	; 192
    1342:	08 95       	ret

00001344 <__fp_pscA>:
    1344:	00 24       	eor	r0, r0
    1346:	0a 94       	dec	r0
    1348:	16 16       	cp	r1, r22
    134a:	17 06       	cpc	r1, r23
    134c:	18 06       	cpc	r1, r24
    134e:	09 06       	cpc	r0, r25
    1350:	08 95       	ret

00001352 <__fp_pscB>:
    1352:	00 24       	eor	r0, r0
    1354:	0a 94       	dec	r0
    1356:	12 16       	cp	r1, r18
    1358:	13 06       	cpc	r1, r19
    135a:	14 06       	cpc	r1, r20
    135c:	05 06       	cpc	r0, r21
    135e:	08 95       	ret

00001360 <__fp_round>:
    1360:	09 2e       	mov	r0, r25
    1362:	03 94       	inc	r0
    1364:	00 0c       	add	r0, r0
    1366:	11 f4       	brne	.+4      	; 0x136c <__fp_round+0xc>
    1368:	88 23       	and	r24, r24
    136a:	52 f0       	brmi	.+20     	; 0x1380 <__fp_round+0x20>
    136c:	bb 0f       	add	r27, r27
    136e:	40 f4       	brcc	.+16     	; 0x1380 <__fp_round+0x20>
    1370:	bf 2b       	or	r27, r31
    1372:	11 f4       	brne	.+4      	; 0x1378 <__fp_round+0x18>
    1374:	60 ff       	sbrs	r22, 0
    1376:	04 c0       	rjmp	.+8      	; 0x1380 <__fp_round+0x20>
    1378:	6f 5f       	subi	r22, 0xFF	; 255
    137a:	7f 4f       	sbci	r23, 0xFF	; 255
    137c:	8f 4f       	sbci	r24, 0xFF	; 255
    137e:	9f 4f       	sbci	r25, 0xFF	; 255
    1380:	08 95       	ret

00001382 <__fp_split3>:
    1382:	57 fd       	sbrc	r21, 7
    1384:	90 58       	subi	r25, 0x80	; 128
    1386:	44 0f       	add	r20, r20
    1388:	55 1f       	adc	r21, r21
    138a:	59 f0       	breq	.+22     	; 0x13a2 <__fp_splitA+0x10>
    138c:	5f 3f       	cpi	r21, 0xFF	; 255
    138e:	71 f0       	breq	.+28     	; 0x13ac <__fp_splitA+0x1a>
    1390:	47 95       	ror	r20

00001392 <__fp_splitA>:
    1392:	88 0f       	add	r24, r24
    1394:	97 fb       	bst	r25, 7
    1396:	99 1f       	adc	r25, r25
    1398:	61 f0       	breq	.+24     	; 0x13b2 <__fp_splitA+0x20>
    139a:	9f 3f       	cpi	r25, 0xFF	; 255
    139c:	79 f0       	breq	.+30     	; 0x13bc <__fp_splitA+0x2a>
    139e:	87 95       	ror	r24
    13a0:	08 95       	ret
    13a2:	12 16       	cp	r1, r18
    13a4:	13 06       	cpc	r1, r19
    13a6:	14 06       	cpc	r1, r20
    13a8:	55 1f       	adc	r21, r21
    13aa:	f2 cf       	rjmp	.-28     	; 0x1390 <__fp_split3+0xe>
    13ac:	46 95       	lsr	r20
    13ae:	f1 df       	rcall	.-30     	; 0x1392 <__fp_splitA>
    13b0:	08 c0       	rjmp	.+16     	; 0x13c2 <__fp_splitA+0x30>
    13b2:	16 16       	cp	r1, r22
    13b4:	17 06       	cpc	r1, r23
    13b6:	18 06       	cpc	r1, r24
    13b8:	99 1f       	adc	r25, r25
    13ba:	f1 cf       	rjmp	.-30     	; 0x139e <__fp_splitA+0xc>
    13bc:	86 95       	lsr	r24
    13be:	71 05       	cpc	r23, r1
    13c0:	61 05       	cpc	r22, r1
    13c2:	08 94       	sec
    13c4:	08 95       	ret

000013c6 <__fp_zero>:
    13c6:	e8 94       	clt

000013c8 <__fp_szero>:
    13c8:	bb 27       	eor	r27, r27
    13ca:	66 27       	eor	r22, r22
    13cc:	77 27       	eor	r23, r23
    13ce:	cb 01       	movw	r24, r22
    13d0:	97 f9       	bld	r25, 7
    13d2:	08 95       	ret

000013d4 <__divmodsi4>:
    13d4:	05 2e       	mov	r0, r21
    13d6:	97 fb       	bst	r25, 7
    13d8:	1e f4       	brtc	.+6      	; 0x13e0 <__divmodsi4+0xc>
    13da:	00 94       	com	r0
    13dc:	0e 94 01 0a 	call	0x1402	; 0x1402 <__negsi2>
    13e0:	57 fd       	sbrc	r21, 7
    13e2:	07 d0       	rcall	.+14     	; 0x13f2 <__divmodsi4_neg2>
    13e4:	0e 94 18 0a 	call	0x1430	; 0x1430 <__udivmodsi4>
    13e8:	07 fc       	sbrc	r0, 7
    13ea:	03 d0       	rcall	.+6      	; 0x13f2 <__divmodsi4_neg2>
    13ec:	4e f4       	brtc	.+18     	; 0x1400 <__divmodsi4_exit>
    13ee:	0c 94 01 0a 	jmp	0x1402	; 0x1402 <__negsi2>

000013f2 <__divmodsi4_neg2>:
    13f2:	50 95       	com	r21
    13f4:	40 95       	com	r20
    13f6:	30 95       	com	r19
    13f8:	21 95       	neg	r18
    13fa:	3f 4f       	sbci	r19, 0xFF	; 255
    13fc:	4f 4f       	sbci	r20, 0xFF	; 255
    13fe:	5f 4f       	sbci	r21, 0xFF	; 255

00001400 <__divmodsi4_exit>:
    1400:	08 95       	ret

00001402 <__negsi2>:
    1402:	90 95       	com	r25
    1404:	80 95       	com	r24
    1406:	70 95       	com	r23
    1408:	61 95       	neg	r22
    140a:	7f 4f       	sbci	r23, 0xFF	; 255
    140c:	8f 4f       	sbci	r24, 0xFF	; 255
    140e:	9f 4f       	sbci	r25, 0xFF	; 255
    1410:	08 95       	ret

00001412 <__umulhisi3>:
    1412:	a2 9f       	mul	r26, r18
    1414:	b0 01       	movw	r22, r0
    1416:	b3 9f       	mul	r27, r19
    1418:	c0 01       	movw	r24, r0
    141a:	a3 9f       	mul	r26, r19
    141c:	70 0d       	add	r23, r0
    141e:	81 1d       	adc	r24, r1
    1420:	11 24       	eor	r1, r1
    1422:	91 1d       	adc	r25, r1
    1424:	b2 9f       	mul	r27, r18
    1426:	70 0d       	add	r23, r0
    1428:	81 1d       	adc	r24, r1
    142a:	11 24       	eor	r1, r1
    142c:	91 1d       	adc	r25, r1
    142e:	08 95       	ret

00001430 <__udivmodsi4>:
    1430:	a1 e2       	ldi	r26, 0x21	; 33
    1432:	1a 2e       	mov	r1, r26
    1434:	aa 1b       	sub	r26, r26
    1436:	bb 1b       	sub	r27, r27
    1438:	fd 01       	movw	r30, r26
    143a:	0d c0       	rjmp	.+26     	; 0x1456 <__udivmodsi4_ep>

0000143c <__udivmodsi4_loop>:
    143c:	aa 1f       	adc	r26, r26
    143e:	bb 1f       	adc	r27, r27
    1440:	ee 1f       	adc	r30, r30
    1442:	ff 1f       	adc	r31, r31
    1444:	a2 17       	cp	r26, r18
    1446:	b3 07       	cpc	r27, r19
    1448:	e4 07       	cpc	r30, r20
    144a:	f5 07       	cpc	r31, r21
    144c:	20 f0       	brcs	.+8      	; 0x1456 <__udivmodsi4_ep>
    144e:	a2 1b       	sub	r26, r18
    1450:	b3 0b       	sbc	r27, r19
    1452:	e4 0b       	sbc	r30, r20
    1454:	f5 0b       	sbc	r31, r21

00001456 <__udivmodsi4_ep>:
    1456:	66 1f       	adc	r22, r22
    1458:	77 1f       	adc	r23, r23
    145a:	88 1f       	adc	r24, r24
    145c:	99 1f       	adc	r25, r25
    145e:	1a 94       	dec	r1
    1460:	69 f7       	brne	.-38     	; 0x143c <__udivmodsi4_loop>
    1462:	60 95       	com	r22
    1464:	70 95       	com	r23
    1466:	80 95       	com	r24
    1468:	90 95       	com	r25
    146a:	9b 01       	movw	r18, r22
    146c:	ac 01       	movw	r20, r24
    146e:	bd 01       	movw	r22, r26
    1470:	cf 01       	movw	r24, r30
    1472:	08 95       	ret

00001474 <strcmp>:
    1474:	fb 01       	movw	r30, r22
    1476:	dc 01       	movw	r26, r24
    1478:	8d 91       	ld	r24, X+
    147a:	01 90       	ld	r0, Z+
    147c:	80 19       	sub	r24, r0
    147e:	01 10       	cpse	r0, r1
    1480:	d9 f3       	breq	.-10     	; 0x1478 <strcmp+0x4>
    1482:	99 0b       	sbc	r25, r25
    1484:	08 95       	ret

00001486 <_exit>:
    1486:	f8 94       	cli

00001488 <__stop_program>:
    1488:	ff cf       	rjmp	.-2      	; 0x1488 <__stop_program>
